EXPORTS
    EndSession @1
    ExecuteSQLCommand @2
    GetCheckListFolder @3
    GetScenarioExecutionDirectory @4
    InitSession @5
    InitSessionWithParams @6
    LoadProcessInstance @7
    Logger @8
    LoggerLevel @9
    MAX_NR_EVENT_TO_MANAGE @10 DATA
    PARAMETER_EXECUTION_RESULT @11 DATA
    PrepareProcessInstance @12
    UpdateProcessInstanceAttributes @13
    Version @14
    _Z28changeOwnerAndStatusActivityPcS_S_P8Response @15
    _ZN11DataManager8DataBase10FileSystem18FileSystemDataBase10addServiceEPKc @16
    _ZN11DataManager8DataBase10FileSystem18FileSystemDataBase10deleteRoleEPKc @17
    _ZN11DataManager8DataBase10FileSystem18FileSystemDataBase10deleteUserEPKc @18
    _ZN11DataManager8DataBase10FileSystem18FileSystemDataBase10getReportsERNS_8Panorama17WorkflowProcesses7ReportsE @19
    _ZN11DataManager8DataBase10FileSystem18FileSystemDataBase10updateRoleEPKc @20
    _ZN11DataManager8DataBase10FileSystem18FileSystemDataBase10updateUserEPKc @21
    _ZN11DataManager8DataBase10FileSystem18FileSystemDataBase11addWorkflowEPNS_8Panorama17WorkflowProcesses15WorkflowProcessE @22
    _ZN11DataManager8DataBase10FileSystem18FileSystemDataBase11getActivityERNS_8Panorama17WorkflowProcesses8ActivityE @23
    _ZN11DataManager8DataBase10FileSystem18FileSystemDataBase11getDataTypeERNS_8Panorama17WorkflowDataTypes8DataTypeE @24
    _ZN11DataManager8DataBase10FileSystem18FileSystemDataBase11getNotifiesERNS_8Panorama17WorkflowProcesses10ActivitiesESs @25
    _ZN11DataManager8DataBase10FileSystem18FileSystemDataBase11getServicesERNS_8Panorama16WorkflowServices8ServicesE @26
    _ZN11DataManager8DataBase10FileSystem18FileSystemDataBase12getDataTypesERNS_8Panorama17WorkflowDataTypes9DataTypesE @27
    _ZN11DataManager8DataBase10FileSystem18FileSystemDataBase12getFormsListEv @28
    _ZN11DataManager8DataBase10FileSystem18FileSystemDataBase12getProcessesERSt6vectorIPNS_8Panorama17WorkflowProcesses15WorkflowProcessESaIS7_EE @29
    _ZN11DataManager8DataBase10FileSystem18FileSystemDataBase12insertReportERNS_8Panorama17WorkflowProcesses6ReportE @30
    _ZN11DataManager8DataBase10FileSystem18FileSystemDataBase13addUserToRoleEPKcS4_ @31
    _ZN11DataManager8DataBase10FileSystem18FileSystemDataBase13deleteServiceEPKc @32
    _ZN11DataManager8DataBase10FileSystem18FileSystemDataBase13getActivitiesERNS_8Panorama17WorkflowProcesses10ActivitiesESsSsb @33
    _ZN11DataManager8DataBase10FileSystem18FileSystemDataBase13getAttributesERNS_8Panorama20WorkflowRelevantData10AttributesE @34
    _ZN11DataManager8DataBase10FileSystem18FileSystemDataBase13insertProcessERSsRNS_8Panorama17WorkflowProcesses15WorkflowProcessEb @35
    _ZN11DataManager8DataBase10FileSystem18FileSystemDataBase13updateProcessEPNS_8Panorama17WorkflowProcesses15WorkflowProcessE @36
    _ZN11DataManager8DataBase10FileSystem18FileSystemDataBase14getRolesByUserEPKcRNS_8Panorama24WorkflowParticipantsData5RolesE @37
    _ZN11DataManager8DataBase10FileSystem18FileSystemDataBase14updateActivityEPNS_8Panorama17WorkflowProcesses8ActivityEb @38
    _ZN11DataManager8DataBase10FileSystem18FileSystemDataBase15getApplicationsERNS_8Panorama24WorkflowApplicationsData12ApplicationsE @39
    _ZN11DataManager8DataBase10FileSystem18FileSystemDataBase15getWorkflowListEv @40
    _ZN11DataManager8DataBase10FileSystem18FileSystemDataBase15saveMessageFlowEPNS_8Panorama17WorkflowProcesses7MessageE @41
    _ZN11DataManager8DataBase10FileSystem18FileSystemDataBase16getAllActivitiesERNS_8Panorama17WorkflowProcesses10ActivitiesESsSsb @42
    _ZN11DataManager8DataBase10FileSystem18FileSystemDataBase16getProcessHeaderERNS_8Panorama17WorkflowProcesses15WorkflowProcessE @43
    _ZN11DataManager8DataBase10FileSystem18FileSystemDataBase16updateAttributesERNS_8Panorama20WorkflowRelevantData10AttributesE @44
    _ZN11DataManager8DataBase10FileSystem18FileSystemDataBase18deleteUserFromRoleEPKcS4_ @45
    _ZN11DataManager8DataBase10FileSystem18FileSystemDataBase18getAllMyActivitiesERNS_8Panorama17WorkflowProcesses10ActivitiesESsSs @46
    _ZN11DataManager8DataBase10FileSystem18FileSystemDataBase18getCheckListFolderEv @47
    _ZN11DataManager8DataBase10FileSystem18FileSystemDataBase18getProcessInstanceERNS_8Panorama17WorkflowProcesses15WorkflowProcessE @48
    _ZN11DataManager8DataBase10FileSystem18FileSystemDataBase18getProcessTemplateEPKc @49
    _ZN11DataManager8DataBase10FileSystem18FileSystemDataBase18getServicesForUserEPKcRNS_8Panorama16WorkflowServices8ServicesE @50
    _ZN11DataManager8DataBase10FileSystem18FileSystemDataBase19getProcessAttributeEPKcRNS_8Panorama20WorkflowRelevantData9AttributeE @51
    _ZN11DataManager8DataBase10FileSystem18FileSystemDataBase21updateActivityNoOwnerEPNS_8Panorama17WorkflowProcesses8ActivityE @52
    _ZN11DataManager8DataBase10FileSystem18FileSystemDataBase25updateActivityCheckStatusEPNS_8Panorama17WorkflowProcesses8ActivityESs @53
    _ZN11DataManager8DataBase10FileSystem18FileSystemDataBase26getActivityRunningNotifiesERNS_8Panorama17WorkflowProcesses10ActivitiesESs @54
    _ZN11DataManager8DataBase10FileSystem18FileSystemDataBase4openEPNS_8Panorama8DataBase20FileSystemConnectionE @55
    _ZN11DataManager8DataBase10FileSystem18FileSystemDataBase5closeEv @56
    _ZN11DataManager8DataBase10FileSystem18FileSystemDataBase7addRoleEPKc @57
    _ZN11DataManager8DataBase10FileSystem18FileSystemDataBase7addUserEPKc @58
    _ZN11DataManager8DataBase10FileSystem18FileSystemDataBase7getFormEPKc @59
    _ZN11DataManager8DataBase10FileSystem18FileSystemDataBase7getRoleERNS_8Panorama24WorkflowParticipantsData4RoleE @60
    _ZN11DataManager8DataBase10FileSystem18FileSystemDataBase7getUserERNS_8Panorama24WorkflowParticipantsData4UserE @61
    _ZN11DataManager8DataBase10FileSystem18FileSystemDataBase7setFormEPKcS4_ @62
    _ZN11DataManager8DataBase10FileSystem18FileSystemDataBase8getRolesERNS_8Panorama24WorkflowParticipantsData5RolesE @63
    _ZN11DataManager8DataBase10FileSystem18FileSystemDataBase8getUsersERNS_8Panorama24WorkflowParticipantsData5UsersE @64
    _ZN11DataManager8DataBase10FileSystem18FileSystemDataBaseC1Ev @65
    _ZN11DataManager8DataBase10FileSystem18FileSystemDataBaseC2Ev @66
    _ZN11DataManager8DataBase10FileSystem18FileSystemDataBaseD0Ev @67
    _ZN11DataManager8DataBase10FileSystem18FileSystemDataBaseD1Ev @68
    _ZN11DataManager8DataBase10FileSystem18FileSystemDataBaseD2Ev @69
    _ZN11DataManager8DataBase10FileSystem33WorkflowProcessInstanceRepositoryC1Ev @70
    _ZN11DataManager8DataBase10FileSystem33WorkflowProcessInstanceRepositoryC2Ev @71
    _ZN11DataManager8DataBase10FileSystem33WorkflowProcessInstanceRepositoryD0Ev @72
    _ZN11DataManager8DataBase10FileSystem33WorkflowProcessInstanceRepositoryD1Ev @73
    _ZN11DataManager8DataBase10FileSystem33WorkflowProcessInstanceRepositoryD2Ev @74
    _ZN11DataManager8DataBase11DBExceptionC1ERKS1_ @75
    _ZN11DataManager8DataBase11DBExceptionC1ERKSs @76
    _ZN11DataManager8DataBase11DBExceptionD0Ev @77
    _ZN11DataManager8DataBase11DBExceptionD1Ev @78
    _ZN11DataManager8DataBase14DataBaseHelper10CheckGrantERNS_8Panorama6Common6GrantsEPKcS7_ @79
    _ZN11DataManager8DataBase14DataBaseHelper10addServiceEPKc @80
    _ZN11DataManager8DataBase14DataBaseHelper10deinstanceEv @81
    _ZN11DataManager8DataBase14DataBaseHelper10deleteRoleEPKc @82
    _ZN11DataManager8DataBase14DataBaseHelper10deleteUserEPKc @83
    _ZN11DataManager8DataBase14DataBaseHelper10getManagerEv @84
    _ZN11DataManager8DataBase14DataBaseHelper10getReportsERNS_8Panorama17WorkflowProcesses7ReportsE @85
    _ZN11DataManager8DataBase14DataBaseHelper10updateRoleEPKc @86
    _ZN11DataManager8DataBase14DataBaseHelper10updateUserEPKc @87
    _ZN11DataManager8DataBase14DataBaseHelper11addWorkflowEPKc @88
    _ZN11DataManager8DataBase14DataBaseHelper11getActivityERNS_8Panorama17WorkflowProcesses8ActivityE @89
    _ZN11DataManager8DataBase14DataBaseHelper11getDataTypeERNS_8Panorama17WorkflowDataTypes8DataTypeE @90
    _ZN11DataManager8DataBase14DataBaseHelper11getNotifiesERNS_8Panorama17WorkflowProcesses10ActivitiesESs @91
    _ZN11DataManager8DataBase14DataBaseHelper11getServicesERNS_8Panorama16WorkflowServices8ServicesE @92
    _ZN11DataManager8DataBase14DataBaseHelper12getDataTypesERNS_8Panorama17WorkflowDataTypes9DataTypesE @93
    _ZN11DataManager8DataBase14DataBaseHelper12getFormsListEv @94
    _ZN11DataManager8DataBase14DataBaseHelper12getProcessesERSt6vectorIPNS_8Panorama17WorkflowProcesses15WorkflowProcessESaIS6_EE @95
    _ZN11DataManager8DataBase14DataBaseHelper12insertReportERNS_8Panorama17WorkflowProcesses6ReportE @96
    _ZN11DataManager8DataBase14DataBaseHelper13SetAttributesERNS_8Panorama20WorkflowRelevantData10AttributesE @97
    _ZN11DataManager8DataBase14DataBaseHelper13addUserToRoleEPKcS3_ @98
    _ZN11DataManager8DataBase14DataBaseHelper13createProcessEPKcRNS_8Panorama17WorkflowProcesses15WorkflowProcessEb @99
    _ZN11DataManager8DataBase14DataBaseHelper13deleteServiceEPKc @100
    _ZN11DataManager8DataBase14DataBaseHelper13getActivitiesERNS_8Panorama17WorkflowProcesses10ActivitiesESsSsb @101
    _ZN11DataManager8DataBase14DataBaseHelper13getAttributesERNS_8Panorama20WorkflowRelevantData10AttributesE @102
    _ZN11DataManager8DataBase14DataBaseHelper13updateProcessEPNS_8Panorama17WorkflowProcesses15WorkflowProcessE @103
    _ZN11DataManager8DataBase14DataBaseHelper14getApplicationERNS_8Panorama24WorkflowApplicationsData11ApplicationE @104
    _ZN11DataManager8DataBase14DataBaseHelper14getRolesByUserEPKcRNS_8Panorama24WorkflowParticipantsData5RolesE @105
    _ZN11DataManager8DataBase14DataBaseHelper14releaseProcessEPNS_8Panorama17WorkflowProcesses15WorkflowProcessE @106
    _ZN11DataManager8DataBase14DataBaseHelper14updateActivityEPNS_8Panorama17WorkflowProcesses8ActivityEb @107
    _ZN11DataManager8DataBase14DataBaseHelper15getApplicationsERNS_8Panorama24WorkflowApplicationsData12ApplicationsE @108
    _ZN11DataManager8DataBase14DataBaseHelper15getWorkflowListEv @109
    _ZN11DataManager8DataBase14DataBaseHelper15saveMessageFlowEPNS_8Panorama17WorkflowProcesses7MessageE @110
    _ZN11DataManager8DataBase14DataBaseHelper16addOccurredEventEPNS_8Panorama14WorkflowEvents13OccurredEventE @111
    _ZN11DataManager8DataBase14DataBaseHelper16getAllActivitiesERNS_8Panorama17WorkflowProcesses10ActivitiesESsb @112
    _ZN11DataManager8DataBase14DataBaseHelper16getProcessHeaderEPKc @113
    _ZN11DataManager8DataBase14DataBaseHelper16getProcessStatusEPKc @114
    _ZN11DataManager8DataBase14DataBaseHelper16updateAttributesERNS_8Panorama20WorkflowRelevantData10AttributesE @115
    _ZN11DataManager8DataBase14DataBaseHelper17ExecuteSQLCommandEPKc @116
    _ZN11DataManager8DataBase14DataBaseHelper17addUsersToProcessEPNS_8Panorama17WorkflowProcesses15WorkflowProcessE @117
    _ZN11DataManager8DataBase14DataBaseHelper17getUnmanagedEventEb @118
    _ZN11DataManager8DataBase14DataBaseHelper18WORKFLOW_EXTENSIONE @119 DATA
    _ZN11DataManager8DataBase14DataBaseHelper18addWaitingActivityEPNS_8Panorama14WorkflowEvents5EventEPNS3_15WaitingActivityE @120
    _ZN11DataManager8DataBase14DataBaseHelper18deleteUserFromRoleEPKcS3_ @121
    _ZN11DataManager8DataBase14DataBaseHelper18getAllMyActivitiesERNS_8Panorama17WorkflowProcesses10ActivitiesESs @122
    _ZN11DataManager8DataBase14DataBaseHelper18getCheckListFolderEv @123
    _ZN11DataManager8DataBase14DataBaseHelper18getEventDefinitionERKSs @124
    _ZN11DataManager8DataBase14DataBaseHelper18getProcessInstanceEPKc @125
    _ZN11DataManager8DataBase14DataBaseHelper18getServicesForUserEPKcRNS_8Panorama16WorkflowServices8ServicesE @126
    _ZN11DataManager8DataBase14DataBaseHelper19LoadProcessInstanceEPKc @127
    _ZN11DataManager8DataBase14DataBaseHelper19getNewProcessHeaderEPKc @128
    _ZN11DataManager8DataBase14DataBaseHelper19getProcessAttributeEPKcRNS_8Panorama20WorkflowRelevantData9AttributeE @129
    _ZN11DataManager8DataBase14DataBaseHelper19updateOccurredEventEPNS_8Panorama14WorkflowEvents13OccurredEventE @130
    _ZN11DataManager8DataBase14DataBaseHelper20GetValueFromDataTypeERKSsS3_ @131
    _ZN11DataManager8DataBase14DataBaseHelper21updateActivityNoOwnerEPNS_8Panorama17WorkflowProcesses8ActivityE @132
    _ZN11DataManager8DataBase14DataBaseHelper21updateWaitingActivityEPNS_8Panorama14WorkflowEvents15WaitingActivityE @133
    _ZN11DataManager8DataBase14DataBaseHelper22DATABASE_TAG_DIRECTORYE @134 DATA
    _ZN11DataManager8DataBase14DataBaseHelper23getWaitingForActivitiesERKSs @135
    _ZN11DataManager8DataBase14DataBaseHelper25updateActivityCheckStatusEPNS_8Panorama17WorkflowProcesses8ActivityESs @136
    _ZN11DataManager8DataBase14DataBaseHelper26getActivityRunningNotifiesERNS_8Panorama17WorkflowProcesses10ActivitiesESs @137
    _ZN11DataManager8DataBase14DataBaseHelper4openESs @138
    _ZN11DataManager8DataBase14DataBaseHelper5closeEv @139
    _ZN11DataManager8DataBase14DataBaseHelper7addRoleEPKc @140
    _ZN11DataManager8DataBase14DataBaseHelper7addUserEPKc @141
    _ZN11DataManager8DataBase14DataBaseHelper7getFormEPKc @142
    _ZN11DataManager8DataBase14DataBaseHelper7getRoleERNS_8Panorama24WorkflowParticipantsData4RoleE @143
    _ZN11DataManager8DataBase14DataBaseHelper7getUserERNS_8Panorama24WorkflowParticipantsData4UserE @144
    _ZN11DataManager8DataBase14DataBaseHelper7setFormEPKcS3_ @145
    _ZN11DataManager8DataBase14DataBaseHelper8getRolesERNS_8Panorama24WorkflowParticipantsData5RolesE @146
    _ZN11DataManager8DataBase14DataBaseHelper8getUsersERNS_8Panorama24WorkflowParticipantsData5UsersE @147
    _ZN11DataManager8DataBase14DataBaseHelper8instanceEv @148
    _ZN11DataManager8DataBase14DataBaseHelper9_instanceE @149 DATA
    _ZN11DataManager8DataBase14DataBaseHelperC1Ev @150
    _ZN11DataManager8DataBase14DataBaseHelperC2Ev @151
    _ZN11DataManager8DataBase14DataBaseHelperD0Ev @152
    _ZN11DataManager8DataBase14DataBaseHelperD1Ev @153
    _ZN11DataManager8DataBase14DataBaseHelperD2Ev @154
    _ZN11DataManager8DataBase14ProcessHandler10getProcessEv @155
    _ZN11DataManager8DataBase14ProcessHandler12getProcessIdEv @156
    _ZN11DataManager8DataBase14ProcessHandler13decrementUserEb @157
    _ZN11DataManager8DataBase14ProcessHandler13incrementUserEv @158
    _ZN11DataManager8DataBase14ProcessHandler7expiredEv @159
    _ZN11DataManager8DataBase14ProcessHandlerC1EPNS_8Panorama17WorkflowProcesses15WorkflowProcessE @160
    _ZN11DataManager8DataBase14ProcessHandlerC2EPNS_8Panorama17WorkflowProcesses15WorkflowProcessE @161
    _ZN11DataManager8DataBase14ProcessHandlerD1Ev @162
    _ZN11DataManager8DataBase14ProcessHandlerD2Ev @163
    _ZN11DataManager8DataBase16DataBaseTemplate10CheckGrantERNS_8Panorama6Common6GrantsEPKcS7_ @164
    _ZN11DataManager8DataBase16DataBaseTemplate10addServiceEPKc @165
    _ZN11DataManager8DataBase16DataBaseTemplate10deleteRoleEPKc @166
    _ZN11DataManager8DataBase16DataBaseTemplate10deleteUserEPKc @167
    _ZN11DataManager8DataBase16DataBaseTemplate10executeSQLEPN3bOS3SQL13SQLConnectionEPNS3_8SQLTableENS3_10SQLCommand12SQLOperationEPKcb @168
    _ZN11DataManager8DataBase16DataBaseTemplate10getManagerEv @169
    _ZN11DataManager8DataBase16DataBaseTemplate10getReportsERNS_8Panorama17WorkflowProcesses7ReportsE @170
    _ZN11DataManager8DataBase16DataBaseTemplate10updateRoleEPKc @171
    _ZN11DataManager8DataBase16DataBaseTemplate10updateUserEPKc @172
    _ZN11DataManager8DataBase16DataBaseTemplate11addWorkflowEPNS_8Panorama17WorkflowProcesses15WorkflowProcessE @173
    _ZN11DataManager8DataBase16DataBaseTemplate11getActivityERNS_8Panorama17WorkflowProcesses8ActivityE @174
    _ZN11DataManager8DataBase16DataBaseTemplate11getDataTypeERNS_8Panorama17WorkflowDataTypes8DataTypeE @175
    _ZN11DataManager8DataBase16DataBaseTemplate11getNotifiesERNS_8Panorama17WorkflowProcesses10ActivitiesESs @176
    _ZN11DataManager8DataBase16DataBaseTemplate11getServicesERNS_8Panorama16WorkflowServices8ServicesE @177
    _ZN11DataManager8DataBase16DataBaseTemplate12getDataTypesERNS_8Panorama17WorkflowDataTypes9DataTypesE @178
    _ZN11DataManager8DataBase16DataBaseTemplate12getFormsListEv @179
    _ZN11DataManager8DataBase16DataBaseTemplate12getProcessesERSt6vectorIPNS_8Panorama17WorkflowProcesses15WorkflowProcessESaIS6_EE @180
    _ZN11DataManager8DataBase16DataBaseTemplate12insertReportERNS_8Panorama17WorkflowProcesses6ReportE @181
    _ZN11DataManager8DataBase16DataBaseTemplate13addUserToRoleEPKcS3_ @182
    _ZN11DataManager8DataBase16DataBaseTemplate13deleteServiceEPKc @183
    _ZN11DataManager8DataBase16DataBaseTemplate13getActivitiesERNS_8Panorama17WorkflowProcesses10ActivitiesESsSsb @184
    _ZN11DataManager8DataBase16DataBaseTemplate13getAttributesERNS_8Panorama20WorkflowRelevantData10AttributesE @185
    _ZN11DataManager8DataBase16DataBaseTemplate13insertProcessERSsRNS_8Panorama17WorkflowProcesses15WorkflowProcessEb @186
    _ZN11DataManager8DataBase16DataBaseTemplate13updateProcessEPNS_8Panorama17WorkflowProcesses15WorkflowProcessE @187
    _ZN11DataManager8DataBase16DataBaseTemplate14getRolesByUserEPKcRNS_8Panorama24WorkflowParticipantsData5RolesE @188
    _ZN11DataManager8DataBase16DataBaseTemplate14updateActivityEPNS_8Panorama17WorkflowProcesses8ActivityEb @189
    _ZN11DataManager8DataBase16DataBaseTemplate15getApplicationsERNS_8Panorama24WorkflowApplicationsData12ApplicationsE @190
    _ZN11DataManager8DataBase16DataBaseTemplate15getWorkflowListEv @191
    _ZN11DataManager8DataBase16DataBaseTemplate15saveMessageFlowEPNS_8Panorama17WorkflowProcesses7MessageE @192
    _ZN11DataManager8DataBase16DataBaseTemplate16getAllActivitiesERNS_8Panorama17WorkflowProcesses10ActivitiesESsb @193
    _ZN11DataManager8DataBase16DataBaseTemplate16getProcessHeaderERNS_8Panorama17WorkflowProcesses15WorkflowProcessE @194
    _ZN11DataManager8DataBase16DataBaseTemplate16getProcessStatusEPKc @195
    _ZN11DataManager8DataBase16DataBaseTemplate16getXMLConnectionEv @196
    _ZN11DataManager8DataBase16DataBaseTemplate16setXMLConnectionEPNS_8Panorama8DataBase10ConnectionE @197
    _ZN11DataManager8DataBase16DataBaseTemplate16updateAttributesERNS_8Panorama20WorkflowRelevantData10AttributesE @198
    _ZN11DataManager8DataBase16DataBaseTemplate17ExecuteSQLCommandEPKc @199
    _ZN11DataManager8DataBase16DataBaseTemplate18deleteUserFromRoleEPKcS3_ @200
    _ZN11DataManager8DataBase16DataBaseTemplate18executeSQLCommandsEPN3bOS3SQL13SQLConnectionEPNS3_8SQLTableENS3_10SQLCommand12SQLOperationEPKcb @201
    _ZN11DataManager8DataBase16DataBaseTemplate18getAllMyActivitiesERNS_8Panorama17WorkflowProcesses10ActivitiesESs @202
    _ZN11DataManager8DataBase16DataBaseTemplate18getCheckListFolderEv @203
    _ZN11DataManager8DataBase16DataBaseTemplate18getProcessInstanceERNS_8Panorama17WorkflowProcesses15WorkflowProcessE @204
    _ZN11DataManager8DataBase16DataBaseTemplate18getProcessTemplateEPKc @205
    _ZN11DataManager8DataBase16DataBaseTemplate18getServicesForUserEPKcRNS_8Panorama16WorkflowServices8ServicesE @206
    _ZN11DataManager8DataBase16DataBaseTemplate19getNewProcessHeaderERNS_8Panorama17WorkflowProcesses15WorkflowProcessE @207
    _ZN11DataManager8DataBase16DataBaseTemplate19getProcessAttributeEPKcRNS_8Panorama20WorkflowRelevantData9AttributeE @208
    _ZN11DataManager8DataBase16DataBaseTemplate21updateActivityNoOwnerEPNS_8Panorama17WorkflowProcesses8ActivityE @209
    _ZN11DataManager8DataBase16DataBaseTemplate25executePrepareSQLCommandsEPN3bOS3SQL13SQLConnectionEPNS3_8SQLTableENS3_10SQLCommand12SQLOperationEPKcb @210
    _ZN11DataManager8DataBase16DataBaseTemplate25updateActivityCheckStatusEPNS_8Panorama17WorkflowProcesses8ActivityESs @211
    _ZN11DataManager8DataBase16DataBaseTemplate26getActivityRunningNotifiesERNS_8Panorama17WorkflowProcesses10ActivitiesESs @212
    _ZN11DataManager8DataBase16DataBaseTemplate27executeRecursiveSQLCommandsEPN3bOS3SQL13SQLConnectionEPNS3_8SQLTableENS3_10SQLCommand12SQLOperationEPKcb @213
    _ZN11DataManager8DataBase16DataBaseTemplate4openEPN3bOS3SQL17SQLConnectionDataENS_8Panorama8DataBase11PoolManagerE @214
    _ZN11DataManager8DataBase16DataBaseTemplate4openEPNS_8Panorama8DataBase20FileSystemConnectionE @215
    _ZN11DataManager8DataBase16DataBaseTemplate5closeEv @216
    _ZN11DataManager8DataBase16DataBaseTemplate7addRoleEPKc @217
    _ZN11DataManager8DataBase16DataBaseTemplate7addUserEPKc @218
    _ZN11DataManager8DataBase16DataBaseTemplate7getFormEPKc @219
    _ZN11DataManager8DataBase16DataBaseTemplate7getRoleERNS_8Panorama24WorkflowParticipantsData4RoleE @220
    _ZN11DataManager8DataBase16DataBaseTemplate7getUserERNS_8Panorama24WorkflowParticipantsData4UserE @221
    _ZN11DataManager8DataBase16DataBaseTemplate7setFormEPKcS3_ @222
    _ZN11DataManager8DataBase16DataBaseTemplate8getRolesERNS_8Panorama24WorkflowParticipantsData5RolesE @223
    _ZN11DataManager8DataBase16DataBaseTemplate8getUsersERNS_8Panorama24WorkflowParticipantsData5UsersE @224
    _ZN11DataManager8DataBase16DataBaseTemplateC1EN3bOS3SQL20SQLConnectionManager12DataBaseTypeE @225
    _ZN11DataManager8DataBase16DataBaseTemplateC1Ev @226
    _ZN11DataManager8DataBase16DataBaseTemplateC2EN3bOS3SQL20SQLConnectionManager12DataBaseTypeE @227
    _ZN11DataManager8DataBase16DataBaseTemplateC2Ev @228
    _ZN11DataManager8DataBase16DataBaseTemplateD0Ev @229
    _ZN11DataManager8DataBase16DataBaseTemplateD1Ev @230
    _ZN11DataManager8DataBase16DataBaseTemplateD2Ev @231
    _ZN11DataManager8DataBase16ProcessesHandler10addProcessEPNS_8Panorama17WorkflowProcesses15WorkflowProcessE @232
    _ZN11DataManager8DataBase16ProcessesHandler10getProcessEPKc @233
    _ZN11DataManager8DataBase16ProcessesHandler11loadProcessEPKc @234
    _ZN11DataManager8DataBase16ProcessesHandler14releaseProcessEPKcb @235
    _ZN11DataManager8DataBase16ProcessesHandlerC1Ev @236
    _ZN11DataManager8DataBase16ProcessesHandlerC2Ev @237
    _ZN11DataManager8DataBase16ProcessesHandlerD1Ev @238
    _ZN11DataManager8DataBase16ProcessesHandlerD2Ev @239
    _ZN11DataManager8Panorama14WorkflowEvents11EventSource10getXMLNodeEj @240
    _ZN11DataManager8Panorama14WorkflowEvents11EventSource11getDateTimeEv @241
    _ZN11DataManager8Panorama14WorkflowEvents11EventSource11setDateTimeERKSs @242
    _ZN11DataManager8Panorama14WorkflowEvents11EventSource15setDateTime2NowEv @243
    _ZN11DataManager8Panorama14WorkflowEvents11EventSource4initEPN3bOS3XML7XMLNodeE @244
    _ZN11DataManager8Panorama14WorkflowEvents11EventSource4initEv @245
    _ZN11DataManager8Panorama14WorkflowEvents11EventSource5parseEPN3bOS3XML12XMLAttributeE @246
    _ZN11DataManager8Panorama14WorkflowEvents11EventSource5parseEPN3bOS3XML7XMLNodeE @247
    _ZN11DataManager8Panorama14WorkflowEvents11EventSource7getNameEv @248
    _ZN11DataManager8Panorama14WorkflowEvents11EventSource7getTypeEv @249
    _ZN11DataManager8Panorama14WorkflowEvents11EventSource7isValidEv @250
    _ZN11DataManager8Panorama14WorkflowEvents11EventSource7setNameERKSs @251
    _ZN11DataManager8Panorama14WorkflowEvents11EventSource7setTypeENS2_10SourceTypeE @252
    _ZN11DataManager8Panorama14WorkflowEvents11EventSource7setTypeERKSs @253
    _ZN11DataManager8Panorama14WorkflowEvents11EventSourceC1EPN3bOS3XML7XMLNodeE @254
    _ZN11DataManager8Panorama14WorkflowEvents11EventSourceC1Ev @255
    _ZN11DataManager8Panorama14WorkflowEvents11EventSourceC2EPN3bOS3XML7XMLNodeE @256
    _ZN11DataManager8Panorama14WorkflowEvents11EventSourceC2Ev @257
    _ZN11DataManager8Panorama14WorkflowEvents11EventSourceD0Ev @258
    _ZN11DataManager8Panorama14WorkflowEvents11EventSourceD1Ev @259
    _ZN11DataManager8Panorama14WorkflowEvents11EventSourceD2Ev @260
    _ZN11DataManager8Panorama14WorkflowEvents12EventActions10getXMLNodeEj @261
    _ZN11DataManager8Panorama14WorkflowEvents12EventActions4initEPN3bOS3XML7XMLNodeE @262
    _ZN11DataManager8Panorama14WorkflowEvents12EventActions4initEv @263
    _ZN11DataManager8Panorama14WorkflowEvents12EventActions5parseEPN3bOS3XML12XMLAttributeE @264
    _ZN11DataManager8Panorama14WorkflowEvents12EventActions5parseEPN3bOS3XML7XMLNodeE @265
    _ZN11DataManager8Panorama14WorkflowEvents12EventActions7isValidEv @266
    _ZN11DataManager8Panorama14WorkflowEvents12EventActionsC1EPN3bOS3XML7XMLNodeE @267
    _ZN11DataManager8Panorama14WorkflowEvents12EventActionsC1Ev @268
    _ZN11DataManager8Panorama14WorkflowEvents12EventActionsC2EPN3bOS3XML7XMLNodeE @269
    _ZN11DataManager8Panorama14WorkflowEvents12EventActionsC2Ev @270
    _ZN11DataManager8Panorama14WorkflowEvents12EventActionsD0Ev @271
    _ZN11DataManager8Panorama14WorkflowEvents12EventActionsD1Ev @272
    _ZN11DataManager8Panorama14WorkflowEvents12EventActionsD2Ev @273
    _ZN11DataManager8Panorama14WorkflowEvents12EventContext10getXMLNodeEj @274
    _ZN11DataManager8Panorama14WorkflowEvents12EventContext4initEv @275
    _ZN11DataManager8Panorama14WorkflowEvents12EventContext5parseEPN3bOS3XML12XMLAttributeE @276
    _ZN11DataManager8Panorama14WorkflowEvents12EventContext5parseEPN3bOS3XML7XMLNodeE @277
    _ZN11DataManager8Panorama14WorkflowEvents12EventContext7equalToEPN3bOS11Collections15CollectionEntryE @278
    _ZN11DataManager8Panorama14WorkflowEvents12EventContext7getNameEv @279
    _ZN11DataManager8Panorama14WorkflowEvents12EventContext7isValidEv @280
    _ZN11DataManager8Panorama14WorkflowEvents12EventContext7setNameERKSs @281
    _ZN11DataManager8Panorama14WorkflowEvents12EventContext8getEventERKSs @282
    _ZN11DataManager8Panorama14WorkflowEvents12EventContextC1EPN3bOS3XML7XMLNodeE @283
    _ZN11DataManager8Panorama14WorkflowEvents12EventContextC1Ev @284
    _ZN11DataManager8Panorama14WorkflowEvents12EventContextC2EPN3bOS3XML7XMLNodeE @285
    _ZN11DataManager8Panorama14WorkflowEvents12EventContextC2Ev @286
    _ZN11DataManager8Panorama14WorkflowEvents12EventContextD0Ev @287
    _ZN11DataManager8Panorama14WorkflowEvents12EventContextD1Ev @288
    _ZN11DataManager8Panorama14WorkflowEvents12EventContextD2Ev @289
    _ZN11DataManager8Panorama14WorkflowEvents12WaitingEvent10getXMLNodeEj @290
    _ZN11DataManager8Panorama14WorkflowEvents12WaitingEvent13getActivitiesEv @291
    _ZN11DataManager8Panorama14WorkflowEvents12WaitingEvent4initEPN3bOS3XML7XMLNodeE @292
    _ZN11DataManager8Panorama14WorkflowEvents12WaitingEvent4initEv @293
    _ZN11DataManager8Panorama14WorkflowEvents12WaitingEvent5parseEPN3bOS3XML12XMLAttributeE @294
    _ZN11DataManager8Panorama14WorkflowEvents12WaitingEvent5parseEPN3bOS3XML7XMLNodeE @295
    _ZN11DataManager8Panorama14WorkflowEvents12WaitingEvent7isValidEv @296
    _ZN11DataManager8Panorama14WorkflowEvents12WaitingEventC1EPN3bOS3XML7XMLNodeE @297
    _ZN11DataManager8Panorama14WorkflowEvents12WaitingEventC1Ev @298
    _ZN11DataManager8Panorama14WorkflowEvents12WaitingEventC2EPN3bOS3XML7XMLNodeE @299
    _ZN11DataManager8Panorama14WorkflowEvents12WaitingEventC2Ev @300
    _ZN11DataManager8Panorama14WorkflowEvents12WaitingEventD0Ev @301
    _ZN11DataManager8Panorama14WorkflowEvents12WaitingEventD1Ev @302
    _ZN11DataManager8Panorama14WorkflowEvents12WaitingEventD2Ev @303
    _ZN11DataManager8Panorama14WorkflowEvents13EventPolicies10getXMLNodeEj @304
    _ZN11DataManager8Panorama14WorkflowEvents13EventPolicies4initEPN3bOS3XML7XMLNodeE @305
    _ZN11DataManager8Panorama14WorkflowEvents13EventPolicies4initEv @306
    _ZN11DataManager8Panorama14WorkflowEvents13EventPolicies5parseEPN3bOS3XML12XMLAttributeE @307
    _ZN11DataManager8Panorama14WorkflowEvents13EventPolicies5parseEPN3bOS3XML7XMLNodeE @308
    _ZN11DataManager8Panorama14WorkflowEvents13EventPolicies7isValidEv @309
    _ZN11DataManager8Panorama14WorkflowEvents13EventPoliciesC1EPN3bOS3XML7XMLNodeE @310
    _ZN11DataManager8Panorama14WorkflowEvents13EventPoliciesC1Ev @311
    _ZN11DataManager8Panorama14WorkflowEvents13EventPoliciesC2EPN3bOS3XML7XMLNodeE @312
    _ZN11DataManager8Panorama14WorkflowEvents13EventPoliciesC2Ev @313
    _ZN11DataManager8Panorama14WorkflowEvents13EventPoliciesD0Ev @314
    _ZN11DataManager8Panorama14WorkflowEvents13EventPoliciesD1Ev @315
    _ZN11DataManager8Panorama14WorkflowEvents13EventPoliciesD2Ev @316
    _ZN11DataManager8Panorama14WorkflowEvents13OccurredEvent10getManagedEv @317
    _ZN11DataManager8Panorama14WorkflowEvents13OccurredEvent10getXMLNodeEj @318
    _ZN11DataManager8Panorama14WorkflowEvents13OccurredEvent11set2ManagedEv @319
    _ZN11DataManager8Panorama14WorkflowEvents13OccurredEvent12set2ManagingEv @320
    _ZN11DataManager8Panorama14WorkflowEvents13OccurredEvent4initEPN3bOS3XML7XMLNodeE @321
    _ZN11DataManager8Panorama14WorkflowEvents13OccurredEvent4initEv @322
    _ZN11DataManager8Panorama14WorkflowEvents13OccurredEvent5parseEPN3bOS3XML12XMLAttributeE @323
    _ZN11DataManager8Panorama14WorkflowEvents13OccurredEvent5parseEPN3bOS3XML7XMLNodeE @324
    _ZN11DataManager8Panorama14WorkflowEvents13OccurredEvent7isValidEv @325
    _ZN11DataManager8Panorama14WorkflowEvents13OccurredEvent9getSourceEv @326
    _ZN11DataManager8Panorama14WorkflowEvents13OccurredEventC1EPN3bOS3XML7XMLNodeE @327
    _ZN11DataManager8Panorama14WorkflowEvents13OccurredEventC1Ev @328
    _ZN11DataManager8Panorama14WorkflowEvents13OccurredEventC2EPN3bOS3XML7XMLNodeE @329
    _ZN11DataManager8Panorama14WorkflowEvents13OccurredEventC2Ev @330
    _ZN11DataManager8Panorama14WorkflowEvents13OccurredEventD0Ev @331
    _ZN11DataManager8Panorama14WorkflowEvents13OccurredEventD1Ev @332
    _ZN11DataManager8Panorama14WorkflowEvents13OccurredEventD2Ev @333
    _ZN11DataManager8Panorama14WorkflowEvents14XMLEventSource11SYSTEM_TYPEE @334 DATA
    _ZN11DataManager8Panorama14WorkflowEvents14XMLEventSource13WORKFLOW_TYPEE @335 DATA
    _ZN11DataManager8Panorama14WorkflowEvents14XMLEventSource14NAME_ATTRIBUTEE @336 DATA
    _ZN11DataManager8Panorama14WorkflowEvents14XMLEventSource14TYPE_ATTRIBUTEE @337 DATA
    _ZN11DataManager8Panorama14WorkflowEvents14XMLEventSource18DATETIME_ATTRIBUTEE @338 DATA
    _ZN11DataManager8Panorama14WorkflowEvents14XMLEventSource9MAIN_NODEE @339 DATA
    _ZN11DataManager8Panorama14WorkflowEvents14XMLEventSource9USER_TYPEE @340 DATA
    _ZN11DataManager8Panorama14WorkflowEvents15WaitingActivity10getManagedEv @341
    _ZN11DataManager8Panorama14WorkflowEvents15WaitingActivity10getXMLNodeEj @342
    _ZN11DataManager8Panorama14WorkflowEvents15WaitingActivity11getDatetimeEv @343
    _ZN11DataManager8Panorama14WorkflowEvents15WaitingActivity11set2ManagedEv @344
    _ZN11DataManager8Panorama14WorkflowEvents15WaitingActivity11setDateTimeERKN3bOS5Utils8DateTimeE @345
    _ZN11DataManager8Panorama14WorkflowEvents15WaitingActivity12getProcessIdEv @346
    _ZN11DataManager8Panorama14WorkflowEvents15WaitingActivity12set2ManagingEv @347
    _ZN11DataManager8Panorama14WorkflowEvents15WaitingActivity12setProcessIdEPKc @348
    _ZN11DataManager8Panorama14WorkflowEvents15WaitingActivity15getActivityNameEv @349
    _ZN11DataManager8Panorama14WorkflowEvents15WaitingActivity15setActivityNameERKSs @350
    _ZN11DataManager8Panorama14WorkflowEvents15WaitingActivity15setDateTime2NowEv @351
    _ZN11DataManager8Panorama14WorkflowEvents15WaitingActivity4initEPN3bOS3XML7XMLNodeE @352
    _ZN11DataManager8Panorama14WorkflowEvents15WaitingActivity4initEv @353
    _ZN11DataManager8Panorama14WorkflowEvents15WaitingActivity5parseEPN3bOS3XML12XMLAttributeE @354
    _ZN11DataManager8Panorama14WorkflowEvents15WaitingActivity5parseEPN3bOS3XML7XMLNodeE @355
    _ZN11DataManager8Panorama14WorkflowEvents15WaitingActivity7equalToEPN3bOS11Collections15CollectionEntryE @356
    _ZN11DataManager8Panorama14WorkflowEvents15WaitingActivity7isValidEv @357
    _ZN11DataManager8Panorama14WorkflowEvents15WaitingActivity9is2ManageEv @358
    _ZN11DataManager8Panorama14WorkflowEvents15WaitingActivityC1EPN3bOS3XML7XMLNodeE @359
    _ZN11DataManager8Panorama14WorkflowEvents15WaitingActivityC1Ev @360
    _ZN11DataManager8Panorama14WorkflowEvents15WaitingActivityC2EPN3bOS3XML7XMLNodeE @361
    _ZN11DataManager8Panorama14WorkflowEvents15WaitingActivityC2Ev @362
    _ZN11DataManager8Panorama14WorkflowEvents15WaitingActivityD0Ev @363
    _ZN11DataManager8Panorama14WorkflowEvents15WaitingActivityD1Ev @364
    _ZN11DataManager8Panorama14WorkflowEvents15WaitingActivityD2Ev @365
    _ZN11DataManager8Panorama14WorkflowEvents15XMLEventActions9MAIN_NODEE @366 DATA
    _ZN11DataManager8Panorama14WorkflowEvents15XMLEventContext14NAME_ATTRIBUTEE @367 DATA
    _ZN11DataManager8Panorama14WorkflowEvents15XMLEventContext9MAIN_NODEE @368 DATA
    _ZN11DataManager8Panorama14WorkflowEvents15XMLWaitingEvent9MAIN_NODEE @369 DATA
    _ZN11DataManager8Panorama14WorkflowEvents16EventsDefinition10getXMLNodeEj @370
    _ZN11DataManager8Panorama14WorkflowEvents16EventsDefinition4initEPN3bOS3XML7XMLNodeE @371
    _ZN11DataManager8Panorama14WorkflowEvents16EventsDefinition4initEv @372
    _ZN11DataManager8Panorama14WorkflowEvents16EventsDefinition5parseEPN3bOS3XML12XMLAttributeE @373
    _ZN11DataManager8Panorama14WorkflowEvents16EventsDefinition5parseEPN3bOS3XML7XMLNodeE @374
    _ZN11DataManager8Panorama14WorkflowEvents16EventsDefinition7isValidEv @375
    _ZN11DataManager8Panorama14WorkflowEvents16EventsDefinition8getEventERKSs @376
    _ZN11DataManager8Panorama14WorkflowEvents16EventsDefinitionC1EPN3bOS3XML7XMLNodeE @377
    _ZN11DataManager8Panorama14WorkflowEvents16EventsDefinitionC1Ev @378
    _ZN11DataManager8Panorama14WorkflowEvents16EventsDefinitionC2EPN3bOS3XML7XMLNodeE @379
    _ZN11DataManager8Panorama14WorkflowEvents16EventsDefinitionC2Ev @380
    _ZN11DataManager8Panorama14WorkflowEvents16EventsDefinitionD0Ev @381
    _ZN11DataManager8Panorama14WorkflowEvents16EventsDefinitionD1Ev @382
    _ZN11DataManager8Panorama14WorkflowEvents16EventsDefinitionD2Ev @383
    _ZN11DataManager8Panorama14WorkflowEvents16XMLEventPolicies9MAIN_NODEE @384 DATA
    _ZN11DataManager8Panorama14WorkflowEvents16XMLOccurredEvent9MAIN_NODEE @385 DATA
    _ZN11DataManager8Panorama14WorkflowEvents17WaitingActivities10getXMLNodeEj @386
    _ZN11DataManager8Panorama14WorkflowEvents17WaitingActivities4initEPN3bOS3XML7XMLNodeE @387
    _ZN11DataManager8Panorama14WorkflowEvents17WaitingActivities4initEv @388
    _ZN11DataManager8Panorama14WorkflowEvents17WaitingActivities5parseEPN3bOS3XML12XMLAttributeE @389
    _ZN11DataManager8Panorama14WorkflowEvents17WaitingActivities5parseEPN3bOS3XML7XMLNodeE @390
    _ZN11DataManager8Panorama14WorkflowEvents17WaitingActivities7isValidEv @391
    _ZN11DataManager8Panorama14WorkflowEvents17WaitingActivitiesC1EPN3bOS3XML7XMLNodeE @392
    _ZN11DataManager8Panorama14WorkflowEvents17WaitingActivitiesC1Ev @393
    _ZN11DataManager8Panorama14WorkflowEvents17WaitingActivitiesC2EPN3bOS3XML7XMLNodeE @394
    _ZN11DataManager8Panorama14WorkflowEvents17WaitingActivitiesC2Ev @395
    _ZN11DataManager8Panorama14WorkflowEvents17WaitingActivitiesD0Ev @396
    _ZN11DataManager8Panorama14WorkflowEvents17WaitingActivitiesD1Ev @397
    _ZN11DataManager8Panorama14WorkflowEvents17WaitingActivitiesD2Ev @398
    _ZN11DataManager8Panorama14WorkflowEvents18XMLWaitingActivity14NAME_ATTRIBUTEE @399 DATA
    _ZN11DataManager8Panorama14WorkflowEvents18XMLWaitingActivity18DATETIME_ATTRIBUTEE @400 DATA
    _ZN11DataManager8Panorama14WorkflowEvents18XMLWaitingActivity19PROCESSID_ATTRIBUTEE @401 DATA
    _ZN11DataManager8Panorama14WorkflowEvents18XMLWaitingActivity9MAIN_NODEE @402 DATA
    _ZN11DataManager8Panorama14WorkflowEvents19EventConsumerPolicy10getXMLNodeEj @403
    _ZN11DataManager8Panorama14WorkflowEvents19EventConsumerPolicy4initEPN3bOS3XML7XMLNodeE @404
    _ZN11DataManager8Panorama14WorkflowEvents19EventConsumerPolicy4initEv @405
    _ZN11DataManager8Panorama14WorkflowEvents19EventConsumerPolicy5parseEPN3bOS3XML12XMLAttributeE @406
    _ZN11DataManager8Panorama14WorkflowEvents19EventConsumerPolicy5parseEPN3bOS3XML7XMLNodeE @407
    _ZN11DataManager8Panorama14WorkflowEvents19EventConsumerPolicy7getTypeEv @408
    _ZN11DataManager8Panorama14WorkflowEvents19EventConsumerPolicy7isValidEv @409
    _ZN11DataManager8Panorama14WorkflowEvents19EventConsumerPolicy7setTypeERKSs @410
    _ZN11DataManager8Panorama14WorkflowEvents19EventConsumerPolicy8getValueEv @411
    _ZN11DataManager8Panorama14WorkflowEvents19EventConsumerPolicy8setValueERKSs @412
    _ZN11DataManager8Panorama14WorkflowEvents19EventConsumerPolicyC1EPN3bOS3XML7XMLNodeE @413
    _ZN11DataManager8Panorama14WorkflowEvents19EventConsumerPolicyC1Ev @414
    _ZN11DataManager8Panorama14WorkflowEvents19EventConsumerPolicyC2EPN3bOS3XML7XMLNodeE @415
    _ZN11DataManager8Panorama14WorkflowEvents19EventConsumerPolicyC2Ev @416
    _ZN11DataManager8Panorama14WorkflowEvents19EventConsumerPolicyD0Ev @417
    _ZN11DataManager8Panorama14WorkflowEvents19EventConsumerPolicyD1Ev @418
    _ZN11DataManager8Panorama14WorkflowEvents19EventConsumerPolicyD2Ev @419
    _ZN11DataManager8Panorama14WorkflowEvents19ManagedEventElement10getXMLNodeEj @420
    _ZN11DataManager8Panorama14WorkflowEvents19ManagedEventElement11getDateTimeEv @421
    _ZN11DataManager8Panorama14WorkflowEvents19ManagedEventElement11setDateTimeERKSs @422
    _ZN11DataManager8Panorama14WorkflowEvents19ManagedEventElement15setDateTime2NowEv @423
    _ZN11DataManager8Panorama14WorkflowEvents19ManagedEventElement16getManagedStatusEv @424
    _ZN11DataManager8Panorama14WorkflowEvents19ManagedEventElement16setManagedStatusENS2_13ManagedStatusE @425
    _ZN11DataManager8Panorama14WorkflowEvents19ManagedEventElement4initEPN3bOS3XML7XMLNodeE @426
    _ZN11DataManager8Panorama14WorkflowEvents19ManagedEventElement4initEv @427
    _ZN11DataManager8Panorama14WorkflowEvents19ManagedEventElement5parseEPN3bOS3XML12XMLAttributeE @428
    _ZN11DataManager8Panorama14WorkflowEvents19ManagedEventElement5parseEPN3bOS3XML7XMLNodeE @429
    _ZN11DataManager8Panorama14WorkflowEvents19ManagedEventElement7isValidEv @430
    _ZN11DataManager8Panorama14WorkflowEvents19ManagedEventElementC1EPN3bOS3XML7XMLNodeE @431
    _ZN11DataManager8Panorama14WorkflowEvents19ManagedEventElementC1Ev @432
    _ZN11DataManager8Panorama14WorkflowEvents19ManagedEventElementC2EPN3bOS3XML7XMLNodeE @433
    _ZN11DataManager8Panorama14WorkflowEvents19ManagedEventElementC2Ev @434
    _ZN11DataManager8Panorama14WorkflowEvents19ManagedEventElementD0Ev @435
    _ZN11DataManager8Panorama14WorkflowEvents19ManagedEventElementD1Ev @436
    _ZN11DataManager8Panorama14WorkflowEvents19ManagedEventElementD2Ev @437
    _ZN11DataManager8Panorama14WorkflowEvents19ScenarioEventAction10getXMLNodeEj @438
    _ZN11DataManager8Panorama14WorkflowEvents19ScenarioEventAction20isProcessExecuteTypeEv @439
    _ZN11DataManager8Panorama14WorkflowEvents19ScenarioEventAction4initEPN3bOS3XML7XMLNodeE @440
    _ZN11DataManager8Panorama14WorkflowEvents19ScenarioEventAction4initEv @441
    _ZN11DataManager8Panorama14WorkflowEvents19ScenarioEventAction5getIdEv @442
    _ZN11DataManager8Panorama14WorkflowEvents19ScenarioEventAction5parseEPN3bOS3XML12XMLAttributeE @443
    _ZN11DataManager8Panorama14WorkflowEvents19ScenarioEventAction5parseEPN3bOS3XML7XMLNodeE @444
    _ZN11DataManager8Panorama14WorkflowEvents19ScenarioEventAction5setIdERKSs @445
    _ZN11DataManager8Panorama14WorkflowEvents19ScenarioEventAction7equalToEPN3bOS11Collections15CollectionEntryE @446
    _ZN11DataManager8Panorama14WorkflowEvents19ScenarioEventAction7getTypeEv @447
    _ZN11DataManager8Panorama14WorkflowEvents19ScenarioEventAction7isValidEv @448
    _ZN11DataManager8Panorama14WorkflowEvents19ScenarioEventAction7setTypeERKSs @449
    _ZN11DataManager8Panorama14WorkflowEvents19ScenarioEventAction8getValueEv @450
    _ZN11DataManager8Panorama14WorkflowEvents19ScenarioEventAction8setValueERKSs @451
    _ZN11DataManager8Panorama14WorkflowEvents19ScenarioEventActionC1EPN3bOS3XML7XMLNodeE @452
    _ZN11DataManager8Panorama14WorkflowEvents19ScenarioEventActionC1Ev @453
    _ZN11DataManager8Panorama14WorkflowEvents19ScenarioEventActionC2EPN3bOS3XML7XMLNodeE @454
    _ZN11DataManager8Panorama14WorkflowEvents19ScenarioEventActionC2Ev @455
    _ZN11DataManager8Panorama14WorkflowEvents19ScenarioEventActionD0Ev @456
    _ZN11DataManager8Panorama14WorkflowEvents19ScenarioEventActionD1Ev @457
    _ZN11DataManager8Panorama14WorkflowEvents19ScenarioEventActionD2Ev @458
    _ZN11DataManager8Panorama14WorkflowEvents19XMLEventsDefinition9MAIN_NODEE @459 DATA
    _ZN11DataManager8Panorama14WorkflowEvents20XMLWaitingActivities9MAIN_NODEE @460 DATA
    _ZN11DataManager8Panorama14WorkflowEvents21EventInvocationPolicy10getXMLNodeEj @461
    _ZN11DataManager8Panorama14WorkflowEvents21EventInvocationPolicy4initEPN3bOS3XML7XMLNodeE @462
    _ZN11DataManager8Panorama14WorkflowEvents21EventInvocationPolicy4initEv @463
    _ZN11DataManager8Panorama14WorkflowEvents21EventInvocationPolicy5parseEPN3bOS3XML12XMLAttributeE @464
    _ZN11DataManager8Panorama14WorkflowEvents21EventInvocationPolicy5parseEPN3bOS3XML7XMLNodeE @465
    _ZN11DataManager8Panorama14WorkflowEvents21EventInvocationPolicy7getTypeEv @466
    _ZN11DataManager8Panorama14WorkflowEvents21EventInvocationPolicy7isValidEv @467
    _ZN11DataManager8Panorama14WorkflowEvents21EventInvocationPolicy7setTypeERKSs @468
    _ZN11DataManager8Panorama14WorkflowEvents21EventInvocationPolicy8getValueEv @469
    _ZN11DataManager8Panorama14WorkflowEvents21EventInvocationPolicy8setValueERKSs @470
    _ZN11DataManager8Panorama14WorkflowEvents21EventInvocationPolicyC1EPN3bOS3XML7XMLNodeE @471
    _ZN11DataManager8Panorama14WorkflowEvents21EventInvocationPolicyC1Ev @472
    _ZN11DataManager8Panorama14WorkflowEvents21EventInvocationPolicyC2EPN3bOS3XML7XMLNodeE @473
    _ZN11DataManager8Panorama14WorkflowEvents21EventInvocationPolicyC2Ev @474
    _ZN11DataManager8Panorama14WorkflowEvents21EventInvocationPolicyD0Ev @475
    _ZN11DataManager8Panorama14WorkflowEvents21EventInvocationPolicyD1Ev @476
    _ZN11DataManager8Panorama14WorkflowEvents21EventInvocationPolicyD2Ev @477
    _ZN11DataManager8Panorama14WorkflowEvents22XMLEventConsumerPolicy14TYPE_ATTRIBUTEE @478 DATA
    _ZN11DataManager8Panorama14WorkflowEvents22XMLEventConsumerPolicy9MAIN_NODEE @479 DATA
    _ZN11DataManager8Panorama14WorkflowEvents22XMLManagedEventElement14MANAGED_STATUSE @480 DATA
    _ZN11DataManager8Panorama14WorkflowEvents22XMLManagedEventElement15MANAGING_STATUSE @481 DATA
    _ZN11DataManager8Panorama14WorkflowEvents22XMLManagedEventElement16STATUS_ATTRIBUTEE @482 DATA
    _ZN11DataManager8Panorama14WorkflowEvents22XMLManagedEventElement16UNMANAGED_STATUSE @483 DATA
    _ZN11DataManager8Panorama14WorkflowEvents22XMLManagedEventElement18DATETIME_ATTRIBUTEE @484 DATA
    _ZN11DataManager8Panorama14WorkflowEvents22XMLManagedEventElement9MAIN_NODEE @485 DATA
    _ZN11DataManager8Panorama14WorkflowEvents22XMLScenarioEventAction12ID_ATTRIBUTEE @486 DATA
    _ZN11DataManager8Panorama14WorkflowEvents22XMLScenarioEventAction14TYPE_ATTRIBUTEE @487 DATA
    _ZN11DataManager8Panorama14WorkflowEvents22XMLScenarioEventAction19PROCESSEXECUTE_TYPEE @488 DATA
    _ZN11DataManager8Panorama14WorkflowEvents22XMLScenarioEventAction9MAIN_NODEE @489 DATA
    _ZN11DataManager8Panorama14WorkflowEvents24XMLEventInvocationPolicy14TYPE_ATTRIBUTEE @490 DATA
    _ZN11DataManager8Panorama14WorkflowEvents24XMLEventInvocationPolicy9MAIN_NODEE @491 DATA
    _ZN11DataManager8Panorama14WorkflowEvents5Event10getActionsEv @492
    _ZN11DataManager8Panorama14WorkflowEvents5Event10getXMLNodeEj @493
    _ZN11DataManager8Panorama14WorkflowEvents5Event11getPoliciesEv @494
    _ZN11DataManager8Panorama14WorkflowEvents5Event13getParametersEv @495
    _ZN11DataManager8Panorama14WorkflowEvents5Event4initEPKc @496
    _ZN11DataManager8Panorama14WorkflowEvents5Event4initEPN3bOS3XML7XMLNodeE @497
    _ZN11DataManager8Panorama14WorkflowEvents5Event4initEv @498
    _ZN11DataManager8Panorama14WorkflowEvents5Event5getIdEv @499
    _ZN11DataManager8Panorama14WorkflowEvents5Event5parseEPN3bOS3XML12XMLAttributeE @500
    _ZN11DataManager8Panorama14WorkflowEvents5Event5parseEPN3bOS3XML7XMLNodeE @501
    _ZN11DataManager8Panorama14WorkflowEvents5Event5setIdERKSs @502
    _ZN11DataManager8Panorama14WorkflowEvents5Event7equalToEPN3bOS11Collections15CollectionEntryE @503
    _ZN11DataManager8Panorama14WorkflowEvents5Event7isValidEv @504
    _ZN11DataManager8Panorama14WorkflowEvents5EventC1EPN3bOS3XML7XMLNodeE @505
    _ZN11DataManager8Panorama14WorkflowEvents5EventC1Ev @506
    _ZN11DataManager8Panorama14WorkflowEvents5EventC2EPN3bOS3XML7XMLNodeE @507
    _ZN11DataManager8Panorama14WorkflowEvents5EventC2Ev @508
    _ZN11DataManager8Panorama14WorkflowEvents5EventD0Ev @509
    _ZN11DataManager8Panorama14WorkflowEvents5EventD1Ev @510
    _ZN11DataManager8Panorama14WorkflowEvents5EventD2Ev @511
    _ZN11DataManager8Panorama14WorkflowEvents6Events10getXMLNodeEj @512
    _ZN11DataManager8Panorama14WorkflowEvents6Events4initEPN3bOS3XML7XMLNodeE @513
    _ZN11DataManager8Panorama14WorkflowEvents6Events4initEv @514
    _ZN11DataManager8Panorama14WorkflowEvents6Events5parseEPN3bOS3XML12XMLAttributeE @515
    _ZN11DataManager8Panorama14WorkflowEvents6Events5parseEPN3bOS3XML7XMLNodeE @516
    _ZN11DataManager8Panorama14WorkflowEvents6Events7isValidEv @517
    _ZN11DataManager8Panorama14WorkflowEvents6Events8getEventERKSs @518
    _ZN11DataManager8Panorama14WorkflowEvents6EventsC1EPN3bOS3XML7XMLNodeE @519
    _ZN11DataManager8Panorama14WorkflowEvents6EventsC1Ev @520
    _ZN11DataManager8Panorama14WorkflowEvents6EventsC2EPN3bOS3XML7XMLNodeE @521
    _ZN11DataManager8Panorama14WorkflowEvents6EventsC2Ev @522
    _ZN11DataManager8Panorama14WorkflowEvents6EventsD0Ev @523
    _ZN11DataManager8Panorama14WorkflowEvents6EventsD1Ev @524
    _ZN11DataManager8Panorama14WorkflowEvents6EventsD2Ev @525
    _ZN11DataManager8Panorama14WorkflowEvents8XMLEvent12ID_ATTRIBUTEE @526 DATA
    _ZN11DataManager8Panorama14WorkflowEvents8XMLEvent9MAIN_NODEE @527 DATA
    _ZN11DataManager8Panorama14WorkflowEvents9XMLEvents9MAIN_NODEE @528 DATA
    _ZN11DataManager8Panorama16WorkflowServices10SQLService10NAME_FIELDE @529 DATA
    _ZN11DataManager8Panorama16WorkflowServices10SQLService10TABLE_NAMEE @530 DATA
    _ZN11DataManager8Panorama16WorkflowServices10SQLService11ROLES_FIELDE @531 DATA
    _ZN11DataManager8Panorama16WorkflowServices10SQLService11USERS_FIELDE @532 DATA
    _ZN11DataManager8Panorama16WorkflowServices10SQLService14WORKFLOW_FIELDE @533 DATA
    _ZN11DataManager8Panorama16WorkflowServices10SQLService17DESCRIPTION_FIELDE @534 DATA
    _ZN11DataManager8Panorama16WorkflowServices10SQLService24EXTENDEDATTRIBUTES_FIELDE @535 DATA
    _ZN11DataManager8Panorama16WorkflowServices10XMLService13WORKFLOW_NODEE @536 DATA
    _ZN11DataManager8Panorama16WorkflowServices10XMLService14NAME_ATTRIBUTEE @537 DATA
    _ZN11DataManager8Panorama16WorkflowServices10XMLService16DESCRIPTION_NODEE @538 DATA
    _ZN11DataManager8Panorama16WorkflowServices10XMLService9MAIN_NODEE @539 DATA
    _ZN11DataManager8Panorama16WorkflowServices11SQLServices10TABLE_NAMEE @540 DATA
    _ZN11DataManager8Panorama16WorkflowServices11XMLServices9MAIN_NODEE @541 DATA
    _ZN11DataManager8Panorama16WorkflowServices7Service10acGetWhereEv @542
    _ZN11DataManager8Panorama16WorkflowServices7Service10getXMLNodeEj @543
    _ZN11DataManager8Panorama16WorkflowServices7Service14acGetTableNameEv @544
    _ZN11DataManager8Panorama16WorkflowServices7Service21getExtendedAttributesEv @545
    _ZN11DataManager8Panorama16WorkflowServices7Service21setAutoIncrementFieldEl @546
    _ZN11DataManager8Panorama16WorkflowServices7Service22haveAutoIncrementFieldEv @547
    _ZN11DataManager8Panorama16WorkflowServices7Service4initEPN3bOS3XML7XMLNodeE @548
    _ZN11DataManager8Panorama16WorkflowServices7Service4initEv @549
    _ZN11DataManager8Panorama16WorkflowServices7Service5parseEPN3bOS3SQL14ResultSetFieldE @550
    _ZN11DataManager8Panorama16WorkflowServices7Service5parseEPN3bOS3SQL15ResultSetRecordE @551
    _ZN11DataManager8Panorama16WorkflowServices7Service5parseEPN3bOS3XML12XMLAttributeE @552
    _ZN11DataManager8Panorama16WorkflowServices7Service5parseEPN3bOS3XML7XMLNodeE @553
    _ZN11DataManager8Panorama16WorkflowServices7Service7equalToEPN3bOS11Collections15CollectionEntryE @554
    _ZN11DataManager8Panorama16WorkflowServices7Service7getNameEv @555
    _ZN11DataManager8Panorama16WorkflowServices7Service7isValidEv @556
    _ZN11DataManager8Panorama16WorkflowServices7Service7setNameERKSs @557
    _ZN11DataManager8Panorama16WorkflowServices7Service8getRolesEv @558
    _ZN11DataManager8Panorama16WorkflowServices7Service8getUsersEv @559
    _ZN11DataManager8Panorama16WorkflowServices7Service9setRecordERN3bOS3SQL15ResultSetRecordE @560
    _ZN11DataManager8Panorama16WorkflowServices7ServiceC1EPKc @561
    _ZN11DataManager8Panorama16WorkflowServices7ServiceC1EPN3bOS3XML7XMLNodeE @562
    _ZN11DataManager8Panorama16WorkflowServices7ServiceC1Ev @563
    _ZN11DataManager8Panorama16WorkflowServices7ServiceC2EPKc @564
    _ZN11DataManager8Panorama16WorkflowServices7ServiceC2EPN3bOS3XML7XMLNodeE @565
    _ZN11DataManager8Panorama16WorkflowServices7ServiceC2Ev @566
    _ZN11DataManager8Panorama16WorkflowServices7ServiceD0Ev @567
    _ZN11DataManager8Panorama16WorkflowServices7ServiceD1Ev @568
    _ZN11DataManager8Panorama16WorkflowServices7ServiceD2Ev @569
    _ZN11DataManager8Panorama16WorkflowServices8Services10addServiceEPKc @570
    _ZN11DataManager8Panorama16WorkflowServices8Services10getXMLNodeEj @571
    _ZN11DataManager8Panorama16WorkflowServices8Services13deleteServiceEPKc @572
    _ZN11DataManager8Panorama16WorkflowServices8Services4initEN3bOS2IO4FileE @573
    _ZN11DataManager8Panorama16WorkflowServices8Services4initEPKc @574
    _ZN11DataManager8Panorama16WorkflowServices8Services4initEPN3bOS3XML7XMLNodeE @575
    _ZN11DataManager8Panorama16WorkflowServices8Services4initEv @576
    _ZN11DataManager8Panorama16WorkflowServices8Services5parseEPN3bOS3XML12XMLAttributeE @577
    _ZN11DataManager8Panorama16WorkflowServices8Services5parseEPN3bOS3XML7XMLNodeE @578
    _ZN11DataManager8Panorama16WorkflowServices8Services7isValidEv @579
    _ZN11DataManager8Panorama16WorkflowServices8ServicesC1EPN3bOS3XML7XMLNodeE @580
    _ZN11DataManager8Panorama16WorkflowServices8ServicesC1Ev @581
    _ZN11DataManager8Panorama16WorkflowServices8ServicesC2EPN3bOS3XML7XMLNodeE @582
    _ZN11DataManager8Panorama16WorkflowServices8ServicesC2Ev @583
    _ZN11DataManager8Panorama16WorkflowServices8ServicesD0Ev @584
    _ZN11DataManager8Panorama16WorkflowServices8ServicesD1Ev @585
    _ZN11DataManager8Panorama16WorkflowServices8ServicesD2Ev @586
    _ZN11DataManager8Panorama17WorkflowDataTypes11SQLDataType10TABLE_NAMEE @587 DATA
    _ZN11DataManager8Panorama17WorkflowDataTypes11SQLDataType10TYPE_FIELDE @588 DATA
    _ZN11DataManager8Panorama17WorkflowDataTypes11SQLDataType12VALUES_FIELDE @589 DATA
    _ZN11DataManager8Panorama17WorkflowDataTypes11SQLDataType17DESCRIPTION_FIELDE @590 DATA
    _ZN11DataManager8Panorama17WorkflowDataTypes11SQLDataType9KEY_FIELDE @591 DATA
    _ZN11DataManager8Panorama17WorkflowDataTypes11XMLDataType13KEY_ATTRIBUTEE @592 DATA
    _ZN11DataManager8Panorama17WorkflowDataTypes11XMLDataType14TYPE_ATTRIBUTEE @593 DATA
    _ZN11DataManager8Panorama17WorkflowDataTypes11XMLDataType16DESCRIPTION_NODEE @594 DATA
    _ZN11DataManager8Panorama17WorkflowDataTypes11XMLDataType9MAIN_NODEE @595 DATA
    _ZN11DataManager8Panorama17WorkflowDataTypes12SQLDataTypes10TABLE_NAMEE @596 DATA
    _ZN11DataManager8Panorama17WorkflowDataTypes12XMLDataTypes9MAIN_NODEE @597 DATA
    _ZN11DataManager8Panorama17WorkflowDataTypes13DataTypeValue10getXMLNodeEj @598
    _ZN11DataManager8Panorama17WorkflowDataTypes13DataTypeValue4initEv @599
    _ZN11DataManager8Panorama17WorkflowDataTypes13DataTypeValue5parseEPN3bOS3XML12XMLAttributeE @600
    _ZN11DataManager8Panorama17WorkflowDataTypes13DataTypeValue5parseEPN3bOS3XML7XMLNodeE @601
    _ZN11DataManager8Panorama17WorkflowDataTypes13DataTypeValue6getKeyEv @602
    _ZN11DataManager8Panorama17WorkflowDataTypes13DataTypeValue6setKeyERKSs @603
    _ZN11DataManager8Panorama17WorkflowDataTypes13DataTypeValue7equalToEPN3bOS11Collections15CollectionEntryE @604
    _ZN11DataManager8Panorama17WorkflowDataTypes13DataTypeValue7isValidEv @605
    _ZN11DataManager8Panorama17WorkflowDataTypes13DataTypeValue8getValueEv @606
    _ZN11DataManager8Panorama17WorkflowDataTypes13DataTypeValueC1EPKc @607
    _ZN11DataManager8Panorama17WorkflowDataTypes13DataTypeValueC1EPN3bOS3XML7XMLNodeE @608
    _ZN11DataManager8Panorama17WorkflowDataTypes13DataTypeValueC1Ev @609
    _ZN11DataManager8Panorama17WorkflowDataTypes13DataTypeValueC2EPKc @610
    _ZN11DataManager8Panorama17WorkflowDataTypes13DataTypeValueC2EPN3bOS3XML7XMLNodeE @611
    _ZN11DataManager8Panorama17WorkflowDataTypes13DataTypeValueC2Ev @612
    _ZN11DataManager8Panorama17WorkflowDataTypes13DataTypeValueD0Ev @613
    _ZN11DataManager8Panorama17WorkflowDataTypes13DataTypeValueD1Ev @614
    _ZN11DataManager8Panorama17WorkflowDataTypes13DataTypeValueD2Ev @615
    _ZN11DataManager8Panorama17WorkflowDataTypes14DataTypeValues10getXMLNodeEj @616
    _ZN11DataManager8Panorama17WorkflowDataTypes14DataTypeValues4initEPKc @617
    _ZN11DataManager8Panorama17WorkflowDataTypes14DataTypeValues4initEPN3bOS3XML7XMLNodeE @618
    _ZN11DataManager8Panorama17WorkflowDataTypes14DataTypeValues4initEv @619
    _ZN11DataManager8Panorama17WorkflowDataTypes14DataTypeValues5parseEPN3bOS3XML12XMLAttributeE @620
    _ZN11DataManager8Panorama17WorkflowDataTypes14DataTypeValues5parseEPN3bOS3XML7XMLNodeE @621
    _ZN11DataManager8Panorama17WorkflowDataTypes14DataTypeValues7isValidEv @622
    _ZN11DataManager8Panorama17WorkflowDataTypes14DataTypeValues8getValueESs @623
    _ZN11DataManager8Panorama17WorkflowDataTypes14DataTypeValuesC1EPN3bOS3XML7XMLNodeE @624
    _ZN11DataManager8Panorama17WorkflowDataTypes14DataTypeValuesC1Ev @625
    _ZN11DataManager8Panorama17WorkflowDataTypes14DataTypeValuesC2EPN3bOS3XML7XMLNodeE @626
    _ZN11DataManager8Panorama17WorkflowDataTypes14DataTypeValuesC2Ev @627
    _ZN11DataManager8Panorama17WorkflowDataTypes14DataTypeValuesD0Ev @628
    _ZN11DataManager8Panorama17WorkflowDataTypes14DataTypeValuesD1Ev @629
    _ZN11DataManager8Panorama17WorkflowDataTypes14DataTypeValuesD2Ev @630
    _ZN11DataManager8Panorama17WorkflowDataTypes16XMLDataTypeValue13KEY_ATTRIBUTEE @631 DATA
    _ZN11DataManager8Panorama17WorkflowDataTypes16XMLDataTypeValue9MAIN_NODEE @632 DATA
    _ZN11DataManager8Panorama17WorkflowDataTypes17XMLDataTypeValues9MAIN_NODEE @633 DATA
    _ZN11DataManager8Panorama17WorkflowDataTypes8DataType10acGetWhereEv @634
    _ZN11DataManager8Panorama17WorkflowDataTypes8DataType10getXMLNodeEj @635
    _ZN11DataManager8Panorama17WorkflowDataTypes8DataType14acGetTableNameEv @636
    _ZN11DataManager8Panorama17WorkflowDataTypes8DataType17getDataTypeValuesEv @637
    _ZN11DataManager8Panorama17WorkflowDataTypes8DataType21setAutoIncrementFieldEl @638
    _ZN11DataManager8Panorama17WorkflowDataTypes8DataType22haveAutoIncrementFieldEv @639
    _ZN11DataManager8Panorama17WorkflowDataTypes8DataType4initEPN3bOS3XML7XMLNodeE @640
    _ZN11DataManager8Panorama17WorkflowDataTypes8DataType4initEv @641
    _ZN11DataManager8Panorama17WorkflowDataTypes8DataType5parseEPN3bOS3SQL14ResultSetFieldE @642
    _ZN11DataManager8Panorama17WorkflowDataTypes8DataType5parseEPN3bOS3SQL15ResultSetRecordE @643
    _ZN11DataManager8Panorama17WorkflowDataTypes8DataType5parseEPN3bOS3XML12XMLAttributeE @644
    _ZN11DataManager8Panorama17WorkflowDataTypes8DataType5parseEPN3bOS3XML7XMLNodeE @645
    _ZN11DataManager8Panorama17WorkflowDataTypes8DataType6getKeyEv @646
    _ZN11DataManager8Panorama17WorkflowDataTypes8DataType6setKeyERKSs @647
    _ZN11DataManager8Panorama17WorkflowDataTypes8DataType7equalToEPN3bOS11Collections15CollectionEntryE @648
    _ZN11DataManager8Panorama17WorkflowDataTypes8DataType7isValidEv @649
    _ZN11DataManager8Panorama17WorkflowDataTypes8DataType9setRecordERN3bOS3SQL15ResultSetRecordE @650
    _ZN11DataManager8Panorama17WorkflowDataTypes8DataTypeC1EPKc @651
    _ZN11DataManager8Panorama17WorkflowDataTypes8DataTypeC1EPN3bOS3XML7XMLNodeE @652
    _ZN11DataManager8Panorama17WorkflowDataTypes8DataTypeC1Ev @653
    _ZN11DataManager8Panorama17WorkflowDataTypes8DataTypeC2EPKc @654
    _ZN11DataManager8Panorama17WorkflowDataTypes8DataTypeC2EPN3bOS3XML7XMLNodeE @655
    _ZN11DataManager8Panorama17WorkflowDataTypes8DataTypeC2Ev @656
    _ZN11DataManager8Panorama17WorkflowDataTypes8DataTypeD0Ev @657
    _ZN11DataManager8Panorama17WorkflowDataTypes8DataTypeD1Ev @658
    _ZN11DataManager8Panorama17WorkflowDataTypes8DataTypeD2Ev @659
    _ZN11DataManager8Panorama17WorkflowDataTypes9DataTypes10getXMLNodeEj @660
    _ZN11DataManager8Panorama17WorkflowDataTypes9DataTypes11getDataTypeERKSs @661
    _ZN11DataManager8Panorama17WorkflowDataTypes9DataTypes4initEN3bOS2IO4FileE @662
    _ZN11DataManager8Panorama17WorkflowDataTypes9DataTypes4initEPN3bOS3XML7XMLNodeE @663
    _ZN11DataManager8Panorama17WorkflowDataTypes9DataTypes4initEv @664
    _ZN11DataManager8Panorama17WorkflowDataTypes9DataTypes5parseEPN3bOS3XML12XMLAttributeE @665
    _ZN11DataManager8Panorama17WorkflowDataTypes9DataTypes5parseEPN3bOS3XML7XMLNodeE @666
    _ZN11DataManager8Panorama17WorkflowDataTypes9DataTypes7isValidEv @667
    _ZN11DataManager8Panorama17WorkflowDataTypes9DataTypesC1EPN3bOS3XML7XMLNodeE @668
    _ZN11DataManager8Panorama17WorkflowDataTypes9DataTypesC1Ev @669
    _ZN11DataManager8Panorama17WorkflowDataTypes9DataTypesC2EPN3bOS3XML7XMLNodeE @670
    _ZN11DataManager8Panorama17WorkflowDataTypes9DataTypesC2Ev @671
    _ZN11DataManager8Panorama17WorkflowDataTypes9DataTypesD0Ev @672
    _ZN11DataManager8Panorama17WorkflowDataTypes9DataTypesD1Ev @673
    _ZN11DataManager8Panorama17WorkflowDataTypes9DataTypesD2Ev @674
    _ZN11DataManager8Panorama17WorkflowProcesses10Activities10acGetWhereEv @675
    _ZN11DataManager8Panorama17WorkflowProcesses10Activities10getXMLNodeEj @676
    _ZN11DataManager8Panorama17WorkflowProcesses10Activities11addActivityERNS1_8ActivityE @677
    _ZN11DataManager8Panorama17WorkflowProcesses10Activities11getActivityENS1_8Activity12ActivityTypeE @678
    _ZN11DataManager8Panorama17WorkflowProcesses10Activities12setProcessIdEPKc @679
    _ZN11DataManager8Panorama17WorkflowProcesses10Activities13addActivitiesERS2_ @680
    _ZN11DataManager8Panorama17WorkflowProcesses10Activities13getActivitiesESsSs @681
    _ZN11DataManager8Panorama17WorkflowProcesses10Activities14acGetTableNameEv @682
    _ZN11DataManager8Panorama17WorkflowProcesses10Activities14addSQLCommandsERN3bOS3SQL11SQLCommandsEi @683
    _ZN11DataManager8Panorama17WorkflowProcesses10Activities16getStartActivityEv @684
    _ZN11DataManager8Panorama17WorkflowProcesses10Activities21setAutoIncrementFieldEl @685
    _ZN11DataManager8Panorama17WorkflowProcesses10Activities22haveAutoIncrementFieldEv @686
    _ZN11DataManager8Panorama17WorkflowProcesses10Activities3getERSs @687
    _ZN11DataManager8Panorama17WorkflowProcesses10Activities4initEPKc @688
    _ZN11DataManager8Panorama17WorkflowProcesses10Activities4initEPN3bOS3XML7XMLNodeE @689
    _ZN11DataManager8Panorama17WorkflowProcesses10Activities4initEv @690
    _ZN11DataManager8Panorama17WorkflowProcesses10Activities5parseEPN3bOS3SQL14ResultSetFieldE @691
    _ZN11DataManager8Panorama17WorkflowProcesses10Activities5parseEPN3bOS3SQL15ResultSetRecordE @692
    _ZN11DataManager8Panorama17WorkflowProcesses10Activities5parseEPN3bOS3XML12XMLAttributeE @693
    _ZN11DataManager8Panorama17WorkflowProcesses10Activities5parseEPN3bOS3XML7XMLNodeE @694
    _ZN11DataManager8Panorama17WorkflowProcesses10Activities6removeERSs @695
    _ZN11DataManager8Panorama17WorkflowProcesses10Activities7isValidEv @696
    _ZN11DataManager8Panorama17WorkflowProcesses10Activities9setRecordERN3bOS3SQL15ResultSetRecordE @697
    _ZN11DataManager8Panorama17WorkflowProcesses10ActivitiesC1EPN3bOS3XML7XMLNodeE @698
    _ZN11DataManager8Panorama17WorkflowProcesses10ActivitiesC1Ev @699
    _ZN11DataManager8Panorama17WorkflowProcesses10ActivitiesC2EPN3bOS3XML7XMLNodeE @700
    _ZN11DataManager8Panorama17WorkflowProcesses10ActivitiesC2Ev @701
    _ZN11DataManager8Panorama17WorkflowProcesses10ActivitiesD0Ev @702
    _ZN11DataManager8Panorama17WorkflowProcesses10ActivitiesD1Ev @703
    _ZN11DataManager8Panorama17WorkflowProcesses10ActivitiesD2Ev @704
    _ZN11DataManager8Panorama17WorkflowProcesses10SQLMessage10FROM_FIELDE @705 DATA
    _ZN11DataManager8Panorama17WorkflowProcesses10SQLMessage10TABLE_NAMEE @706 DATA
    _ZN11DataManager8Panorama17WorkflowProcesses10SQLMessage16ATTRIBUTES_FIELDE @707 DATA
    _ZN11DataManager8Panorama17WorkflowProcesses10SQLMessage8ID_FIELDE @708 DATA
    _ZN11DataManager8Panorama17WorkflowProcesses10SQLMessage8TO_FIELDE @709 DATA
    _ZN11DataManager8Panorama17WorkflowProcesses10SQLReports10TABLE_NAMEE @710 DATA
    _ZN11DataManager8Panorama17WorkflowProcesses10Transition10getXMLNodeEj @711
    _ZN11DataManager8Panorama17WorkflowProcesses10Transition11getOperatorEv @712
    _ZN11DataManager8Panorama17WorkflowProcesses10Transition13getToActivityEv @713
    _ZN11DataManager8Panorama17WorkflowProcesses10Transition15getFromActivityEv @714
    _ZN11DataManager8Panorama17WorkflowProcesses10Transition16isNoReExecuteWayEv @715
    _ZN11DataManager8Panorama17WorkflowProcesses10Transition4initEv @716
    _ZN11DataManager8Panorama17WorkflowProcesses10Transition5parseEPN3bOS3XML12XMLAttributeE @717
    _ZN11DataManager8Panorama17WorkflowProcesses10Transition5parseEPN3bOS3XML7XMLNodeE @718
    _ZN11DataManager8Panorama17WorkflowProcesses10Transition7equalToEPN3bOS11Collections15CollectionEntryE @719
    _ZN11DataManager8Panorama17WorkflowProcesses10Transition7isValidEv @720
    _ZN11DataManager8Panorama17WorkflowProcesses10Transition9getResultEv @721
    _ZN11DataManager8Panorama17WorkflowProcesses10TransitionC1EPN3bOS3XML7XMLNodeE @722
    _ZN11DataManager8Panorama17WorkflowProcesses10TransitionC1Ev @723
    _ZN11DataManager8Panorama17WorkflowProcesses10TransitionC2EPN3bOS3XML7XMLNodeE @724
    _ZN11DataManager8Panorama17WorkflowProcesses10TransitionC2Ev @725
    _ZN11DataManager8Panorama17WorkflowProcesses10TransitionD0Ev @726
    _ZN11DataManager8Panorama17WorkflowProcesses10TransitionD1Ev @727
    _ZN11DataManager8Panorama17WorkflowProcesses10TransitionD2Ev @728
    _ZN11DataManager8Panorama17WorkflowProcesses10XMLMessage12ID_ATTRIBUTEE @729 DATA
    _ZN11DataManager8Panorama17WorkflowProcesses10XMLMessage12TO_ATTRIBUTEE @730 DATA
    _ZN11DataManager8Panorama17WorkflowProcesses10XMLMessage14FROM_ATTRIBUTEE @731 DATA
    _ZN11DataManager8Panorama17WorkflowProcesses10XMLMessage9MAIN_NODEE @732 DATA
    _ZN11DataManager8Panorama17WorkflowProcesses10XMLReports9MAIN_NODEE @733 DATA
    _ZN11DataManager8Panorama17WorkflowProcesses11SQLActivity10LOGS_FIELDE @734 DATA
    _ZN11DataManager8Panorama17WorkflowProcesses11SQLActivity10NAME_FIELDE @735 DATA
    _ZN11DataManager8Panorama17WorkflowProcesses11SQLActivity10TABLE_NAMEE @736 DATA
    _ZN11DataManager8Panorama17WorkflowProcesses11SQLActivity10TYPE_FIELDE @737 DATA
    _ZN11DataManager8Panorama17WorkflowProcesses11SQLActivity11OWNER_FIELDE @738 DATA
    _ZN11DataManager8Panorama17WorkflowProcesses11SQLActivity12GRANTS_FIELDE @739 DATA
    _ZN11DataManager8Panorama17WorkflowProcesses11SQLActivity12STATUS_FIELDE @740 DATA
    _ZN11DataManager8Panorama17WorkflowProcesses11SQLActivity13REPORTS_FIELDE @741 DATA
    _ZN11DataManager8Panorama17WorkflowProcesses11SQLActivity15BEHAVIOUR_FIELDE @742 DATA
    _ZN11DataManager8Panorama17WorkflowProcesses11SQLActivity16CATCH_TYPE_FIELDE @743 DATA
    _ZN11DataManager8Panorama17WorkflowProcesses11SQLActivity17DESCRIPTION_FIELDE @744 DATA
    _ZN11DataManager8Panorama17WorkflowProcesses11SQLActivity17NR_EXECUTED_FIELDE @745 DATA
    _ZN11DataManager8Panorama17WorkflowProcesses11SQLActivity24REFERENCE_ACTIVITY_FIELDE @746 DATA
    _ZN11DataManager8Panorama17WorkflowProcesses11SQLActivity9LOG_FIELDE @747 DATA
    _ZN11DataManager8Panorama17WorkflowProcesses11SQLMessages10TABLE_NAMEE @748 DATA
    _ZN11DataManager8Panorama17WorkflowProcesses11Transitions10getXMLNodeEj @749
    _ZN11DataManager8Panorama17WorkflowProcesses11Transitions14addTransitionsERS2_ @750
    _ZN11DataManager8Panorama17WorkflowProcesses11Transitions4initEPKc @751
    _ZN11DataManager8Panorama17WorkflowProcesses11Transitions4initEPN3bOS3XML7XMLNodeE @752
    _ZN11DataManager8Panorama17WorkflowProcesses11Transitions4initEv @753
    _ZN11DataManager8Panorama17WorkflowProcesses11Transitions5parseEPN3bOS3XML12XMLAttributeE @754
    _ZN11DataManager8Panorama17WorkflowProcesses11Transitions5parseEPN3bOS3XML7XMLNodeE @755
    _ZN11DataManager8Panorama17WorkflowProcesses11Transitions7isValidEv @756
    _ZN11DataManager8Panorama17WorkflowProcesses11TransitionsC1EPN3bOS3XML7XMLNodeE @757
    _ZN11DataManager8Panorama17WorkflowProcesses11TransitionsC1Ev @758
    _ZN11DataManager8Panorama17WorkflowProcesses11TransitionsC2EPN3bOS3XML7XMLNodeE @759
    _ZN11DataManager8Panorama17WorkflowProcesses11TransitionsC2Ev @760
    _ZN11DataManager8Panorama17WorkflowProcesses11TransitionsD0Ev @761
    _ZN11DataManager8Panorama17WorkflowProcesses11TransitionsD1Ev @762
    _ZN11DataManager8Panorama17WorkflowProcesses11TransitionsD2Ev @763
    _ZN11DataManager8Panorama17WorkflowProcesses11XMLActivity10EMAIL_TYPEE @764 DATA
    _ZN11DataManager8Panorama17WorkflowProcesses11XMLActivity10EVENT_TYPEE @765 DATA
    _ZN11DataManager8Panorama17WorkflowProcesses11XMLActivity10START_TYPEE @766 DATA
    _ZN11DataManager8Panorama17WorkflowProcesses11XMLActivity12CATCHER_TYPEE @767 DATA
    _ZN11DataManager8Panorama17WorkflowProcesses11XMLActivity12ERROR_STATUSE @768 DATA
    _ZN11DataManager8Panorama17WorkflowProcesses11XMLActivity12ID_ATTRIBUTEE @769 DATA
    _ZN11DataManager8Panorama17WorkflowProcesses11XMLActivity12SUBFLOW_TYPEE @770 DATA
    _ZN11DataManager8Panorama17WorkflowProcesses11XMLActivity12THROWER_TYPEE @771 DATA
    _ZN11DataManager8Panorama17WorkflowProcesses11XMLActivity13MANUAL_STATUSE @772 DATA
    _ZN11DataManager8Panorama17WorkflowProcesses11XMLActivity13QUEUED_STATUSE @773 DATA
    _ZN11DataManager8Panorama17WorkflowProcesses11XMLActivity14CONDITION_TYPEE @774 DATA
    _ZN11DataManager8Panorama17WorkflowProcesses11XMLActivity14CREATED_STATUSE @775 DATA
    _ZN11DataManager8Panorama17WorkflowProcesses11XMLActivity14ITERATION_TYPEE @776 DATA
    _ZN11DataManager8Panorama17WorkflowProcesses11XMLActivity14MARKER_FEATUREE @777 DATA
    _ZN11DataManager8Panorama17WorkflowProcesses11XMLActivity14NAME_ATTRIBUTEE @778 DATA
    _ZN11DataManager8Panorama17WorkflowProcesses11XMLActivity14RUNNING_STATUSE @779 DATA
    _ZN11DataManager8Panorama17WorkflowProcesses11XMLActivity14TYPE_ATTRIBUTEE @780 DATA
    _ZN11DataManager8Panorama17WorkflowProcesses11XMLActivity15CATCH_TYPE_NODEE @781 DATA
    _ZN11DataManager8Panorama17WorkflowProcesses11XMLActivity15EVER_CATCH_TYPEE @782 DATA
    _ZN11DataManager8Panorama17WorkflowProcesses11XMLActivity16APPLICATION_TYPEE @783 DATA
    _ZN11DataManager8Panorama17WorkflowProcesses11XMLActivity16COMPLETED_STATUSE @784 DATA
    _ZN11DataManager8Panorama17WorkflowProcesses11XMLActivity16DESCRIPTION_NODEE @785 DATA
    _ZN11DataManager8Panorama17WorkflowProcesses11XMLActivity16MARKER_ASSIGN_TOE @786 DATA
    _ZN11DataManager8Panorama17WorkflowProcesses11XMLActivity16MARKER_EXECUTIONE @787 DATA
    _ZN11DataManager8Panorama17WorkflowProcesses11XMLActivity16MARKER_OCCURENCYE @788 DATA
    _ZN11DataManager8Panorama17WorkflowProcesses11XMLActivity16NEVER_CATCH_TYPEE @789 DATA
    _ZN11DataManager8Panorama17WorkflowProcesses11XMLActivity16NR_EXECUTED_NODEE @790 DATA
    _ZN11DataManager8Panorama17WorkflowProcesses11XMLActivity17WAITINGFOR_STATUSE @791 DATA
    _ZN11DataManager8Panorama17WorkflowProcesses11XMLActivity18MARKER_PROCESSNAMEE @792 DATA
    _ZN11DataManager8Panorama17WorkflowProcesses11XMLActivity19ONLY_ONE_CATCH_TYPEE @793 DATA
    _ZN11DataManager8Panorama17WorkflowProcesses11XMLActivity21MARKER_NOTIFY_FEATUREE @794 DATA
    _ZN11DataManager8Panorama17WorkflowProcesses11XMLActivity23REFERENCE_ACTIVITY_NODEE @795 DATA
    _ZN11DataManager8Panorama17WorkflowProcesses11XMLActivity25MARKER_SEQUENCE_EXECUTIONE @796 DATA
    _ZN11DataManager8Panorama17WorkflowProcesses11XMLActivity8API_TYPEE @797 DATA
    _ZN11DataManager8Panorama17WorkflowProcesses11XMLActivity8END_TYPEE @798 DATA
    _ZN11DataManager8Panorama17WorkflowProcesses11XMLActivity8XML_TYPEE @799 DATA
    _ZN11DataManager8Panorama17WorkflowProcesses11XMLActivity9EXIT_TYPEE @800 DATA
    _ZN11DataManager8Panorama17WorkflowProcesses11XMLActivity9MAIN_NODEE @801 DATA
    _ZN11DataManager8Panorama17WorkflowProcesses11XMLActivity9NONE_TYPEE @802 DATA
    _ZN11DataManager8Panorama17WorkflowProcesses11XMLMessages9MAIN_NODEE @803 DATA
    _ZN11DataManager8Panorama17WorkflowProcesses12XMLBehaviour9MAIN_NODEE @804 DATA
    _ZN11DataManager8Panorama17WorkflowProcesses13BehaviourBase10getXMLNodeEj @805
    _ZN11DataManager8Panorama17WorkflowProcesses13BehaviourBase11isAutomaticEv @806
    _ZN11DataManager8Panorama17WorkflowProcesses13BehaviourBase4initEv @807
    _ZN11DataManager8Panorama17WorkflowProcesses13BehaviourBase5parseEPN3bOS3XML12XMLAttributeE @808
    _ZN11DataManager8Panorama17WorkflowProcesses13BehaviourBase5parseEPN3bOS3XML7XMLNodeE @809
    _ZN11DataManager8Panorama17WorkflowProcesses13BehaviourBase6getKeyEv @810
    _ZN11DataManager8Panorama17WorkflowProcesses13BehaviourBase7equalToEPN3bOS11Collections15CollectionEntryE @811
    _ZN11DataManager8Panorama17WorkflowProcesses13BehaviourBase7isValidEv @812
    _ZN11DataManager8Panorama17WorkflowProcesses13BehaviourBase9getReportEv @813
    _ZN11DataManager8Panorama17WorkflowProcesses13BehaviourBaseC1ESs @814
    _ZN11DataManager8Panorama17WorkflowProcesses13BehaviourBaseC2ESs @815
    _ZN11DataManager8Panorama17WorkflowProcesses13BehaviourBaseD0Ev @816
    _ZN11DataManager8Panorama17WorkflowProcesses13BehaviourBaseD1Ev @817
    _ZN11DataManager8Panorama17WorkflowProcesses13BehaviourBaseD2Ev @818
    _ZN11DataManager8Panorama17WorkflowProcesses13SQLActivities10TABLE_NAMEE @819 DATA
    _ZN11DataManager8Panorama17WorkflowProcesses13XMLActivities9MAIN_NODEE @820 DATA
    _ZN11DataManager8Panorama17WorkflowProcesses13XMLTransition10YES_REEXECE @821 DATA
    _ZN11DataManager8Panorama17WorkflowProcesses13XMLTransition11REEXEC_NODEE @822 DATA
    _ZN11DataManager8Panorama17WorkflowProcesses13XMLTransition11RESULT_NODEE @823 DATA
    _ZN11DataManager8Panorama17WorkflowProcesses13XMLTransition12ID_ATTRIBUTEE @824 DATA
    _ZN11DataManager8Panorama17WorkflowProcesses13XMLTransition12TO_ATTRIBUTEE @825 DATA
    _ZN11DataManager8Panorama17WorkflowProcesses13XMLTransition13OPERATOR_NODEE @826 DATA
    _ZN11DataManager8Panorama17WorkflowProcesses13XMLTransition14EQUAL_OPERATORE @827 DATA
    _ZN11DataManager8Panorama17WorkflowProcesses13XMLTransition14FROM_ATTRIBUTEE @828 DATA
    _ZN11DataManager8Panorama17WorkflowProcesses13XMLTransition15ALWAYS_OPERATORE @829 DATA
    _ZN11DataManager8Panorama17WorkflowProcesses13XMLTransition17NOTEQUAL_OPERATORE @830 DATA
    _ZN11DataManager8Panorama17WorkflowProcesses13XMLTransition18LESS_THAN_OPERATORE @831 DATA
    _ZN11DataManager8Panorama17WorkflowProcesses13XMLTransition18MORE_THAN_OPERATORE @832 DATA
    _ZN11DataManager8Panorama17WorkflowProcesses13XMLTransition24LESS_EQUAL_THAN_OPERATORE @833 DATA
    _ZN11DataManager8Panorama17WorkflowProcesses13XMLTransition24MORE_EQUAL_THAN_OPERATORE @834 DATA
    _ZN11DataManager8Panorama17WorkflowProcesses13XMLTransition9MAIN_NODEE @835 DATA
    _ZN11DataManager8Panorama17WorkflowProcesses13XMLTransition9NO_REEXECE @836 DATA
    _ZN11DataManager8Panorama17WorkflowProcesses14BehaviourStart10getXMLNodeEj @837
    _ZN11DataManager8Panorama17WorkflowProcesses14BehaviourStart10setOnlyOneEv @838
    _ZN11DataManager8Panorama17WorkflowProcesses14BehaviourStart12isToRexecuteEv @839
    _ZN11DataManager8Panorama17WorkflowProcesses14BehaviourStart4initEv @840
    _ZN11DataManager8Panorama17WorkflowProcesses14BehaviourStart5parseEPN3bOS3XML12XMLAttributeE @841
    _ZN11DataManager8Panorama17WorkflowProcesses14BehaviourStart5parseEPN3bOS3XML7XMLNodeE @842
    _ZN11DataManager8Panorama17WorkflowProcesses14BehaviourStart7isValidEv @843
    _ZN11DataManager8Panorama17WorkflowProcesses14BehaviourStartC1EPN3bOS3XML7XMLNodeE @844
    _ZN11DataManager8Panorama17WorkflowProcesses14BehaviourStartC1Ev @845
    _ZN11DataManager8Panorama17WorkflowProcesses14BehaviourStartC2EPN3bOS3XML7XMLNodeE @846
    _ZN11DataManager8Panorama17WorkflowProcesses14BehaviourStartC2Ev @847
    _ZN11DataManager8Panorama17WorkflowProcesses14BehaviourStartD0Ev @848
    _ZN11DataManager8Panorama17WorkflowProcesses14BehaviourStartD1Ev @849
    _ZN11DataManager8Panorama17WorkflowProcesses14BehaviourStartD2Ev @850
    _ZN11DataManager8Panorama17WorkflowProcesses14XMLTransitions9MAIN_NODEE @851 DATA
    _ZN11DataManager8Panorama17WorkflowProcesses15BehaviourFinish10getXMLNodeEj @852
    _ZN11DataManager8Panorama17WorkflowProcesses15BehaviourFinish4initEv @853
    _ZN11DataManager8Panorama17WorkflowProcesses15BehaviourFinish5parseEPN3bOS3XML12XMLAttributeE @854
    _ZN11DataManager8Panorama17WorkflowProcesses15BehaviourFinish5parseEPN3bOS3XML7XMLNodeE @855
    _ZN11DataManager8Panorama17WorkflowProcesses15BehaviourFinish7isValidEv @856
    _ZN11DataManager8Panorama17WorkflowProcesses15BehaviourFinishC1EPN3bOS3XML7XMLNodeE @857
    _ZN11DataManager8Panorama17WorkflowProcesses15BehaviourFinishC1Ev @858
    _ZN11DataManager8Panorama17WorkflowProcesses15BehaviourFinishC2EPN3bOS3XML7XMLNodeE @859
    _ZN11DataManager8Panorama17WorkflowProcesses15BehaviourFinishC2Ev @860
    _ZN11DataManager8Panorama17WorkflowProcesses15BehaviourFinishD0Ev @861
    _ZN11DataManager8Panorama17WorkflowProcesses15BehaviourFinishD1Ev @862
    _ZN11DataManager8Panorama17WorkflowProcesses15BehaviourFinishD2Ev @863
    _ZN11DataManager8Panorama17WorkflowProcesses15WorkflowProcess10acGetWhereEv @864
    _ZN11DataManager8Panorama17WorkflowProcesses15WorkflowProcess10getReportsEv @865
    _ZN11DataManager8Panorama17WorkflowProcesses15WorkflowProcess10getXMLNodeEj @866
    _ZN11DataManager8Panorama17WorkflowProcesses15WorkflowProcess10setCreatedEv @867
    _ZN11DataManager8Panorama17WorkflowProcesses15WorkflowProcess10setRunningEv @868
    _ZN11DataManager8Panorama17WorkflowProcesses15WorkflowProcess11exit2ManageEv @869
    _ZN11DataManager8Panorama17WorkflowProcesses15WorkflowProcess11getFileNameEv @870
    _ZN11DataManager8Panorama17WorkflowProcesses15WorkflowProcess11getMessagesEv @871
    _ZN11DataManager8Panorama17WorkflowProcesses15WorkflowProcess11isCompletedEv @872
    _ZN11DataManager8Panorama17WorkflowProcesses15WorkflowProcess11setSequenceEl @873
    _ZN11DataManager8Panorama17WorkflowProcesses15WorkflowProcess12getSQLTablesEv @874
    _ZN11DataManager8Panorama17WorkflowProcesses15WorkflowProcess12setCompletedEv @875
    _ZN11DataManager8Panorama17WorkflowProcesses15WorkflowProcess12setProcessIdEPKc @876
    _ZN11DataManager8Panorama17WorkflowProcesses15WorkflowProcess13getActivitiesEv @877
    _ZN11DataManager8Panorama17WorkflowProcesses15WorkflowProcess13getAttributesEv @878
    _ZN11DataManager8Panorama17WorkflowProcesses15WorkflowProcess14acGetTableNameEv @879
    _ZN11DataManager8Panorama17WorkflowProcesses15WorkflowProcess14getTransitionsEv @880
    _ZN11DataManager8Panorama17WorkflowProcesses15WorkflowProcess14setExit2ManageEv @881
    _ZN11DataManager8Panorama17WorkflowProcesses15WorkflowProcess14setExitManagedEv @882
    _ZN11DataManager8Panorama17WorkflowProcesses15WorkflowProcess16getParentProcessEv @883
    _ZN11DataManager8Panorama17WorkflowProcesses15WorkflowProcess16setParentProcessEPKc @884
    _ZN11DataManager8Panorama17WorkflowProcesses15WorkflowProcess19getNextActivityListESs @885
    _ZN11DataManager8Panorama17WorkflowProcesses15WorkflowProcess20getTaskParentProcessEv @886
    _ZN11DataManager8Panorama17WorkflowProcesses15WorkflowProcess20setTaskParentProcessEPKc @887
    _ZN11DataManager8Panorama17WorkflowProcesses15WorkflowProcess21setAutoIncrementFieldEl @888
    _ZN11DataManager8Panorama17WorkflowProcesses15WorkflowProcess22haveAutoIncrementFieldEv @889
    _ZN11DataManager8Panorama17WorkflowProcesses15WorkflowProcess4initEPKc @890
    _ZN11DataManager8Panorama17WorkflowProcesses15WorkflowProcess4initEPN3bOS3XML7XMLNodeE @891
    _ZN11DataManager8Panorama17WorkflowProcesses15WorkflowProcess4initEv @892
    _ZN11DataManager8Panorama17WorkflowProcesses15WorkflowProcess5parseEPN3bOS3SQL14ResultSetFieldE @893
    _ZN11DataManager8Panorama17WorkflowProcesses15WorkflowProcess5parseEPN3bOS3SQL15ResultSetRecordE @894
    _ZN11DataManager8Panorama17WorkflowProcesses15WorkflowProcess5parseEPN3bOS3XML12XMLAttributeE @895
    _ZN11DataManager8Panorama17WorkflowProcesses15WorkflowProcess5parseEPN3bOS3XML7XMLNodeE @896
    _ZN11DataManager8Panorama17WorkflowProcesses15WorkflowProcess7getNameEv @897
    _ZN11DataManager8Panorama17WorkflowProcesses15WorkflowProcess7isErrorEv @898
    _ZN11DataManager8Panorama17WorkflowProcesses15WorkflowProcess7isValidEv @899
    _ZN11DataManager8Panorama17WorkflowProcesses15WorkflowProcess8isQueuedEv @900
    _ZN11DataManager8Panorama17WorkflowProcesses15WorkflowProcess8setErrorEv @901
    _ZN11DataManager8Panorama17WorkflowProcesses15WorkflowProcess9isCreatedEv @902
    _ZN11DataManager8Panorama17WorkflowProcesses15WorkflowProcess9isRunningEv @903
    _ZN11DataManager8Panorama17WorkflowProcesses15WorkflowProcess9setQueuedEv @904
    _ZN11DataManager8Panorama17WorkflowProcesses15WorkflowProcess9setRecordERN3bOS3SQL15ResultSetRecordE @905
    _ZN11DataManager8Panorama17WorkflowProcesses15WorkflowProcess9setStatusERKSs @906
    _ZN11DataManager8Panorama17WorkflowProcesses15WorkflowProcessC1EPN3bOS3XML7XMLNodeE @907
    _ZN11DataManager8Panorama17WorkflowProcesses15WorkflowProcessC1Ev @908
    _ZN11DataManager8Panorama17WorkflowProcesses15WorkflowProcessC2EPN3bOS3XML7XMLNodeE @909
    _ZN11DataManager8Panorama17WorkflowProcesses15WorkflowProcessC2Ev @910
    _ZN11DataManager8Panorama17WorkflowProcesses15WorkflowProcessD0Ev @911
    _ZN11DataManager8Panorama17WorkflowProcesses15WorkflowProcessD1Ev @912
    _ZN11DataManager8Panorama17WorkflowProcesses15WorkflowProcessD2Ev @913
    _ZN11DataManager8Panorama17WorkflowProcesses16ProcessComponent10acGetWhereEv @914
    _ZN11DataManager8Panorama17WorkflowProcesses16ProcessComponent12getProcessIdEv @915
    _ZN11DataManager8Panorama17WorkflowProcesses16ProcessComponent12setProcessIdEPKc @916
    _ZN11DataManager8Panorama17WorkflowProcesses16ProcessComponent4initEv @917
    _ZN11DataManager8Panorama17WorkflowProcesses16ProcessComponent5parseEPN3bOS3SQL14ResultSetFieldE @918
    _ZN11DataManager8Panorama17WorkflowProcesses16ProcessComponent5parseEPN3bOS3XML12XMLAttributeE @919
    _ZN11DataManager8Panorama17WorkflowProcesses16ProcessComponent5parseEPN3bOS3XML7XMLNodeE @920
    _ZN11DataManager8Panorama17WorkflowProcesses16ProcessComponent6setXMLEPN3bOS3XML7XMLNodeE @921
    _ZN11DataManager8Panorama17WorkflowProcesses16ProcessComponent9setRecordERN3bOS3SQL15ResultSetRecordE @922
    _ZN11DataManager8Panorama17WorkflowProcesses16ProcessComponentC1Ev @923
    _ZN11DataManager8Panorama17WorkflowProcesses16ProcessComponentC2Ev @924
    _ZN11DataManager8Panorama17WorkflowProcesses16ProcessComponentD0Ev @925
    _ZN11DataManager8Panorama17WorkflowProcesses16ProcessComponentD1Ev @926
    _ZN11DataManager8Panorama17WorkflowProcesses16ProcessComponentD2Ev @927
    _ZN11DataManager8Panorama17WorkflowProcesses16ProcessComponentaSERKS2_ @928
    _ZN11DataManager8Panorama17WorkflowProcesses16XMLBehaviourBase11MANUAL_MODEE @929 DATA
    _ZN11DataManager8Panorama17WorkflowProcesses16XMLBehaviourBase14AUTOMATIC_MODEE @930 DATA
    _ZN11DataManager8Panorama17WorkflowProcesses16XMLBehaviourBase14MODE_ATTRIBUTEE @931 DATA
    _ZN11DataManager8Panorama17WorkflowProcesses17ActivityComponent10acGetWhereEv @932
    _ZN11DataManager8Panorama17WorkflowProcesses17ActivityComponent13getActivityIdEv @933
    _ZN11DataManager8Panorama17WorkflowProcesses17ActivityComponent13setActivityIdEPKc @934
    _ZN11DataManager8Panorama17WorkflowProcesses17ActivityComponent4initEv @935
    _ZN11DataManager8Panorama17WorkflowProcesses17ActivityComponent5parseEPN3bOS3SQL14ResultSetFieldE @936
    _ZN11DataManager8Panorama17WorkflowProcesses17ActivityComponent5parseEPN3bOS3XML12XMLAttributeE @937
    _ZN11DataManager8Panorama17WorkflowProcesses17ActivityComponent5parseEPN3bOS3XML7XMLNodeE @938
    _ZN11DataManager8Panorama17WorkflowProcesses17ActivityComponent6setXMLEPN3bOS3XML7XMLNodeE @939
    _ZN11DataManager8Panorama17WorkflowProcesses17ActivityComponent9setRecordERN3bOS3SQL15ResultSetRecordE @940
    _ZN11DataManager8Panorama17WorkflowProcesses17ActivityComponentC1Ev @941
    _ZN11DataManager8Panorama17WorkflowProcesses17ActivityComponentC2Ev @942
    _ZN11DataManager8Panorama17WorkflowProcesses17ActivityComponentD0Ev @943
    _ZN11DataManager8Panorama17WorkflowProcesses17ActivityComponentD1Ev @944
    _ZN11DataManager8Panorama17WorkflowProcesses17ActivityComponentD2Ev @945
    _ZN11DataManager8Panorama17WorkflowProcesses17ActivityComponentaSERKS2_ @946
    _ZN11DataManager8Panorama17WorkflowProcesses17XMLBehaviourStart10NO_ONLYONEE @947 DATA
    _ZN11DataManager8Panorama17WorkflowProcesses17XMLBehaviourStart11YES_ONLYONEE @948 DATA
    _ZN11DataManager8Panorama17WorkflowProcesses17XMLBehaviourStart17ONLYONE_ATTRIBUTEE @949 DATA
    _ZN11DataManager8Panorama17WorkflowProcesses17XMLBehaviourStart9MAIN_NODEE @950 DATA
    _ZN11DataManager8Panorama17WorkflowProcesses18BehaviourExecution10getXMLNodeEj @951
    _ZN11DataManager8Panorama17WorkflowProcesses18BehaviourExecution4initEv @952
    _ZN11DataManager8Panorama17WorkflowProcesses18BehaviourExecution5parseEPN3bOS3XML12XMLAttributeE @953
    _ZN11DataManager8Panorama17WorkflowProcesses18BehaviourExecution5parseEPN3bOS3XML7XMLNodeE @954
    _ZN11DataManager8Panorama17WorkflowProcesses18BehaviourExecution7isValidEv @955
    _ZN11DataManager8Panorama17WorkflowProcesses18BehaviourExecution9getScriptEv @956
    _ZN11DataManager8Panorama17WorkflowProcesses18BehaviourExecutionC1EPN3bOS3XML7XMLNodeE @957
    _ZN11DataManager8Panorama17WorkflowProcesses18BehaviourExecutionC1Ev @958
    _ZN11DataManager8Panorama17WorkflowProcesses18BehaviourExecutionC2EPN3bOS3XML7XMLNodeE @959
    _ZN11DataManager8Panorama17WorkflowProcesses18BehaviourExecutionC2Ev @960
    _ZN11DataManager8Panorama17WorkflowProcesses18BehaviourExecutionD0Ev @961
    _ZN11DataManager8Panorama17WorkflowProcesses18BehaviourExecutionD1Ev @962
    _ZN11DataManager8Panorama17WorkflowProcesses18BehaviourExecutionD2Ev @963
    _ZN11DataManager8Panorama17WorkflowProcesses18SQLWorkflowProcess10NAME_FIELDE @964 DATA
    _ZN11DataManager8Panorama17WorkflowProcesses18SQLWorkflowProcess10TABLE_NAMEE @965 DATA
    _ZN11DataManager8Panorama17WorkflowProcesses18SQLWorkflowProcess12STATUS_FIELDE @966 DATA
    _ZN11DataManager8Panorama17WorkflowProcesses18SQLWorkflowProcess14MESSAGES_FIELDE @967 DATA
    _ZN11DataManager8Panorama17WorkflowProcesses18SQLWorkflowProcess17DESCRIPTION_FIELDE @968 DATA
    _ZN11DataManager8Panorama17WorkflowProcesses18SQLWorkflowProcess17EXIT2MANAGE_FIELDE @969 DATA
    _ZN11DataManager8Panorama17WorkflowProcesses18SQLWorkflowProcess17TRANSITIONS_FIELDE @970 DATA
    _ZN11DataManager8Panorama17WorkflowProcesses18SQLWorkflowProcess18CREATIONDATE_FIELDE @971 DATA
    _ZN11DataManager8Panorama17WorkflowProcesses18SQLWorkflowProcess20PARENT_PROCESS_FIELDE @972 DATA
    _ZN11DataManager8Panorama17WorkflowProcesses18SQLWorkflowProcess22COMPLETITIONDATE_FIELDE @973 DATA
    _ZN11DataManager8Panorama17WorkflowProcesses18SQLWorkflowProcess29ACTIVITY_PARENT_PROCESS_FIELDE @974 DATA
    _ZN11DataManager8Panorama17WorkflowProcesses18XMLBehaviourFinish9MAIN_NODEE @975 DATA
    _ZN11DataManager8Panorama17WorkflowProcesses18XMLWorkflowProcess11STATUS_NODEE @976 DATA
    _ZN11DataManager8Panorama17WorkflowProcesses18XMLWorkflowProcess12ERROR_STATUSE @977 DATA
    _ZN11DataManager8Panorama17WorkflowProcesses18XMLWorkflowProcess13QUEUED_STATUSE @978 DATA
    _ZN11DataManager8Panorama17WorkflowProcesses18XMLWorkflowProcess14CREATED_STATUSE @979 DATA
    _ZN11DataManager8Panorama17WorkflowProcesses18XMLWorkflowProcess14NAME_ATTRIBUTEE @980 DATA
    _ZN11DataManager8Panorama17WorkflowProcesses18XMLWorkflowProcess14RUNNING_STATUSE @981 DATA
    _ZN11DataManager8Panorama17WorkflowProcesses18XMLWorkflowProcess16COMPLETED_STATUSE @982 DATA
    _ZN11DataManager8Panorama17WorkflowProcesses18XMLWorkflowProcess16DESCRIPTION_NODEE @983 DATA
    _ZN11DataManager8Panorama17WorkflowProcesses18XMLWorkflowProcess16EXIT2MANAGE_NODEE @984 DATA
    _ZN11DataManager8Panorama17WorkflowProcesses18XMLWorkflowProcess19PARENT_PROCESS_NODEE @985 DATA
    _ZN11DataManager8Panorama17WorkflowProcesses18XMLWorkflowProcess28ACTIVITY_PARENT_PROCESS_NODEE @986 DATA
    _ZN11DataManager8Panorama17WorkflowProcesses18XMLWorkflowProcess9MAIN_NODEE @987 DATA
    _ZN11DataManager8Panorama17WorkflowProcesses19SQLProcessComponent16PROCESS_ID_FIELDE @988 DATA
    _ZN11DataManager8Panorama17WorkflowProcesses19XMLProcessComponent15PROCESS_ID_NODEE @989 DATA
    _ZN11DataManager8Panorama17WorkflowProcesses20SQLActivityComponent17ACTIVITY_ID_FIELDE @990 DATA
    _ZN11DataManager8Panorama17WorkflowProcesses20XMLActivityComponent12ID_ATTRIBUTEE @991 DATA
    _ZN11DataManager8Panorama17WorkflowProcesses20XMLWorkflowProcesses9MAIN_NODEE @992 DATA
    _ZN11DataManager8Panorama17WorkflowProcesses21XMLBehaviourExecution10ROUTE_TYPEE @993 DATA
    _ZN11DataManager8Panorama17WorkflowProcesses21XMLBehaviourExecution14TYPE_ATTRIBUTEE @994 DATA
    _ZN11DataManager8Panorama17WorkflowProcesses21XMLBehaviourExecution18BLOCKACTIVITY_TYPEE @995 DATA
    _ZN11DataManager8Panorama17WorkflowProcesses21XMLBehaviourExecution19IMPLEMENTATION_TYPEE @996 DATA
    _ZN11DataManager8Panorama17WorkflowProcesses21XMLBehaviourExecution9MAIN_NODEE @997 DATA
    _ZN11DataManager8Panorama17WorkflowProcesses3Log10getUserKeyEv @998
    _ZN11DataManager8Panorama17WorkflowProcesses3Log10getXMLNodeEj @999
    _ZN11DataManager8Panorama17WorkflowProcesses3Log10setUserKeyERKSs @1000
    _ZN11DataManager8Panorama17WorkflowProcesses3Log11checkStatusEPKcb @1001
    _ZN11DataManager8Panorama17WorkflowProcesses3Log3addEPNS1_6StatusE @1002
    _ZN11DataManager8Panorama17WorkflowProcesses3Log3addERNS1_6StatusE @1003
    _ZN11DataManager8Panorama17WorkflowProcesses3Log4initEPKc @1004
    _ZN11DataManager8Panorama17WorkflowProcesses3Log4initEPN3bOS3XML7XMLNodeE @1005
    _ZN11DataManager8Panorama17WorkflowProcesses3Log4initEv @1006
    _ZN11DataManager8Panorama17WorkflowProcesses3Log5parseEPN3bOS3XML12XMLAttributeE @1007
    _ZN11DataManager8Panorama17WorkflowProcesses3Log5parseEPN3bOS3XML7XMLNodeE @1008
    _ZN11DataManager8Panorama17WorkflowProcesses3Log7equalToEPN3bOS11Collections15CollectionEntryE @1009
    _ZN11DataManager8Panorama17WorkflowProcesses3Log7getDateEv @1010
    _ZN11DataManager8Panorama17WorkflowProcesses3Log7isValidEv @1011
    _ZN11DataManager8Panorama17WorkflowProcesses3Log7setDateERKSs @1012
    _ZN11DataManager8Panorama17WorkflowProcesses3Log9getResultEv @1013
    _ZN11DataManager8Panorama17WorkflowProcesses3Log9getStatusEv @1014
    _ZN11DataManager8Panorama17WorkflowProcesses3Log9setResultERKSs @1015
    _ZN11DataManager8Panorama17WorkflowProcesses3Log9setStatusERKSs @1016
    _ZN11DataManager8Panorama17WorkflowProcesses3LogC1EPN3bOS3XML7XMLNodeE @1017
    _ZN11DataManager8Panorama17WorkflowProcesses3LogC1Ev @1018
    _ZN11DataManager8Panorama17WorkflowProcesses3LogC2EPN3bOS3XML7XMLNodeE @1019
    _ZN11DataManager8Panorama17WorkflowProcesses3LogC2Ev @1020
    _ZN11DataManager8Panorama17WorkflowProcesses3LogD0Ev @1021
    _ZN11DataManager8Panorama17WorkflowProcesses3LogD1Ev @1022
    _ZN11DataManager8Panorama17WorkflowProcesses3LogD2Ev @1023
    _ZN11DataManager8Panorama17WorkflowProcesses4Logs10getXMLNodeEj @1024
    _ZN11DataManager8Panorama17WorkflowProcesses4Logs11checkStatusEPKc @1025
    _ZN11DataManager8Panorama17WorkflowProcesses4Logs3addERNS1_3LogE @1026
    _ZN11DataManager8Panorama17WorkflowProcesses4Logs4initEPKc @1027
    _ZN11DataManager8Panorama17WorkflowProcesses4Logs4initEPN3bOS3XML7XMLNodeE @1028
    _ZN11DataManager8Panorama17WorkflowProcesses4Logs4initEv @1029
    _ZN11DataManager8Panorama17WorkflowProcesses4Logs5parseEPN3bOS3XML12XMLAttributeE @1030
    _ZN11DataManager8Panorama17WorkflowProcesses4Logs5parseEPN3bOS3XML7XMLNodeE @1031
    _ZN11DataManager8Panorama17WorkflowProcesses4Logs7isValidEv @1032
    _ZN11DataManager8Panorama17WorkflowProcesses4LogsC1EPN3bOS3XML7XMLNodeE @1033
    _ZN11DataManager8Panorama17WorkflowProcesses4LogsC1Ev @1034
    _ZN11DataManager8Panorama17WorkflowProcesses4LogsC2EPN3bOS3XML7XMLNodeE @1035
    _ZN11DataManager8Panorama17WorkflowProcesses4LogsC2Ev @1036
    _ZN11DataManager8Panorama17WorkflowProcesses4LogsD0Ev @1037
    _ZN11DataManager8Panorama17WorkflowProcesses4LogsD1Ev @1038
    _ZN11DataManager8Panorama17WorkflowProcesses4LogsD2Ev @1039
    _ZN11DataManager8Panorama17WorkflowProcesses6Report10acGetWhereEv @1040
    _ZN11DataManager8Panorama17WorkflowProcesses6Report10getXMLNodeEj @1041
    _ZN11DataManager8Panorama17WorkflowProcesses6Report11setDateTimeERKSs @1042
    _ZN11DataManager8Panorama17WorkflowProcesses6Report14acGetTableNameEv @1043
    _ZN11DataManager8Panorama17WorkflowProcesses6Report21setAutoIncrementFieldEl @1044
    _ZN11DataManager8Panorama17WorkflowProcesses6Report22haveAutoIncrementFieldEv @1045
    _ZN11DataManager8Panorama17WorkflowProcesses6Report4initEPN3bOS3XML7XMLNodeE @1046
    _ZN11DataManager8Panorama17WorkflowProcesses6Report4initEv @1047
    _ZN11DataManager8Panorama17WorkflowProcesses6Report5parseEPN3bOS3SQL14ResultSetFieldE @1048
    _ZN11DataManager8Panorama17WorkflowProcesses6Report5parseEPN3bOS3SQL15ResultSetRecordE @1049
    _ZN11DataManager8Panorama17WorkflowProcesses6Report5parseEPN3bOS3XML12XMLAttributeE @1050
    _ZN11DataManager8Panorama17WorkflowProcesses6Report5parseEPN3bOS3XML7XMLNodeE @1051
    _ZN11DataManager8Panorama17WorkflowProcesses6Report7equalToEPN3bOS11Collections15CollectionEntryE @1052
    _ZN11DataManager8Panorama17WorkflowProcesses6Report7isValidEv @1053
    _ZN11DataManager8Panorama17WorkflowProcesses6Report8getValueEv @1054
    _ZN11DataManager8Panorama17WorkflowProcesses6Report8setValueERKSs @1055
    _ZN11DataManager8Panorama17WorkflowProcesses6Report9setRecordERN3bOS3SQL15ResultSetRecordE @1056
    _ZN11DataManager8Panorama17WorkflowProcesses6ReportC1EPN3bOS3XML7XMLNodeE @1057
    _ZN11DataManager8Panorama17WorkflowProcesses6ReportC1Ev @1058
    _ZN11DataManager8Panorama17WorkflowProcesses6ReportC2EPN3bOS3XML7XMLNodeE @1059
    _ZN11DataManager8Panorama17WorkflowProcesses6ReportC2Ev @1060
    _ZN11DataManager8Panorama17WorkflowProcesses6ReportD0Ev @1061
    _ZN11DataManager8Panorama17WorkflowProcesses6ReportD1Ev @1062
    _ZN11DataManager8Panorama17WorkflowProcesses6ReportD2Ev @1063
    _ZN11DataManager8Panorama17WorkflowProcesses6Script10getCommandEv @1064
    _ZN11DataManager8Panorama17WorkflowProcesses6Script10getXMLNodeEj @1065
    _ZN11DataManager8Panorama17WorkflowProcesses6Script11getDataTypeEv @1066
    _ZN11DataManager8Panorama17WorkflowProcesses6Script4initEPN3bOS3XML7XMLNodeE @1067
    _ZN11DataManager8Panorama17WorkflowProcesses6Script4initEv @1068
    _ZN11DataManager8Panorama17WorkflowProcesses6Script5parseEPN3bOS3XML12XMLAttributeE @1069
    _ZN11DataManager8Panorama17WorkflowProcesses6Script5parseEPN3bOS3XML7XMLNodeE @1070
    _ZN11DataManager8Panorama17WorkflowProcesses6Script7getTypeEv @1071
    _ZN11DataManager8Panorama17WorkflowProcesses6Script7isValidEv @1072
    _ZN11DataManager8Panorama17WorkflowProcesses6ScriptC1EPN3bOS3XML7XMLNodeE @1073
    _ZN11DataManager8Panorama17WorkflowProcesses6ScriptC1Ev @1074
    _ZN11DataManager8Panorama17WorkflowProcesses6ScriptC2EPN3bOS3XML7XMLNodeE @1075
    _ZN11DataManager8Panorama17WorkflowProcesses6ScriptC2Ev @1076
    _ZN11DataManager8Panorama17WorkflowProcesses6ScriptD0Ev @1077
    _ZN11DataManager8Panorama17WorkflowProcesses6ScriptD1Ev @1078
    _ZN11DataManager8Panorama17WorkflowProcesses6ScriptD2Ev @1079
    _ZN11DataManager8Panorama17WorkflowProcesses6Status10getXMLNodeEj @1080
    _ZN11DataManager8Panorama17WorkflowProcesses6Status4initEv @1081
    _ZN11DataManager8Panorama17WorkflowProcesses6Status5parseEPN3bOS3XML12XMLAttributeE @1082
    _ZN11DataManager8Panorama17WorkflowProcesses6Status5parseEPN3bOS3XML7XMLNodeE @1083
    _ZN11DataManager8Panorama17WorkflowProcesses6Status7equalToEPN3bOS11Collections15CollectionEntryE @1084
    _ZN11DataManager8Panorama17WorkflowProcesses6Status7getDateEv @1085
    _ZN11DataManager8Panorama17WorkflowProcesses6Status7isValidEv @1086
    _ZN11DataManager8Panorama17WorkflowProcesses6Status7setDateERKSs @1087
    _ZN11DataManager8Panorama17WorkflowProcesses6Status9getStatusEv @1088
    _ZN11DataManager8Panorama17WorkflowProcesses6Status9setStatusERKSs @1089
    _ZN11DataManager8Panorama17WorkflowProcesses6StatusC1EPN3bOS3XML7XMLNodeE @1090
    _ZN11DataManager8Panorama17WorkflowProcesses6StatusC1Ev @1091
    _ZN11DataManager8Panorama17WorkflowProcesses6StatusC2EPN3bOS3XML7XMLNodeE @1092
    _ZN11DataManager8Panorama17WorkflowProcesses6StatusC2Ev @1093
    _ZN11DataManager8Panorama17WorkflowProcesses6StatusD0Ev @1094
    _ZN11DataManager8Panorama17WorkflowProcesses6StatusD1Ev @1095
    _ZN11DataManager8Panorama17WorkflowProcesses6StatusD2Ev @1096
    _ZN11DataManager8Panorama17WorkflowProcesses6XMLLog15OWNER_ATTRIBUTEE @1097 DATA
    _ZN11DataManager8Panorama17WorkflowProcesses6XMLLog16RESULT_ATTRIBUTEE @1098 DATA
    _ZN11DataManager8Panorama17WorkflowProcesses6XMLLog9MAIN_NODEE @1099 DATA
    _ZN11DataManager8Panorama17WorkflowProcesses7Message10acGetWhereEv @1100
    _ZN11DataManager8Panorama17WorkflowProcesses7Message10getXMLNodeEj @1101
    _ZN11DataManager8Panorama17WorkflowProcesses7Message13getParametersEv @1102
    _ZN11DataManager8Panorama17WorkflowProcesses7Message14acGetTableNameEv @1103
    _ZN11DataManager8Panorama17WorkflowProcesses7Message15getFromActivityEv @1104
    _ZN11DataManager8Panorama17WorkflowProcesses7Message21setAutoIncrementFieldEl @1105
    _ZN11DataManager8Panorama17WorkflowProcesses7Message22haveAutoIncrementFieldEv @1106
    _ZN11DataManager8Panorama17WorkflowProcesses7Message4initEv @1107
    _ZN11DataManager8Panorama17WorkflowProcesses7Message5parseEPN3bOS3SQL14ResultSetFieldE @1108
    _ZN11DataManager8Panorama17WorkflowProcesses7Message5parseEPN3bOS3SQL15ResultSetRecordE @1109
    _ZN11DataManager8Panorama17WorkflowProcesses7Message5parseEPN3bOS3XML12XMLAttributeE @1110
    _ZN11DataManager8Panorama17WorkflowProcesses7Message5parseEPN3bOS3XML7XMLNodeE @1111
    _ZN11DataManager8Panorama17WorkflowProcesses7Message7equalToEPN3bOS11Collections15CollectionEntryE @1112
    _ZN11DataManager8Panorama17WorkflowProcesses7Message7isValidEv @1113
    _ZN11DataManager8Panorama17WorkflowProcesses7Message9setRecordERN3bOS3SQL15ResultSetRecordE @1114
    _ZN11DataManager8Panorama17WorkflowProcesses7MessageC1EPN3bOS3XML7XMLNodeE @1115
    _ZN11DataManager8Panorama17WorkflowProcesses7MessageC1Ev @1116
    _ZN11DataManager8Panorama17WorkflowProcesses7MessageC2EPN3bOS3XML7XMLNodeE @1117
    _ZN11DataManager8Panorama17WorkflowProcesses7MessageC2Ev @1118
    _ZN11DataManager8Panorama17WorkflowProcesses7MessageD0Ev @1119
    _ZN11DataManager8Panorama17WorkflowProcesses7MessageD1Ev @1120
    _ZN11DataManager8Panorama17WorkflowProcesses7MessageD2Ev @1121
    _ZN11DataManager8Panorama17WorkflowProcesses7Reports10acGetWhereEv @1122
    _ZN11DataManager8Panorama17WorkflowProcesses7Reports10getXMLNodeEj @1123
    _ZN11DataManager8Panorama17WorkflowProcesses7Reports14acGetTableNameEv @1124
    _ZN11DataManager8Panorama17WorkflowProcesses7Reports14addSQLCommandsERN3bOS3SQL11SQLCommandsEi @1125
    _ZN11DataManager8Panorama17WorkflowProcesses7Reports21setAutoIncrementFieldEl @1126
    _ZN11DataManager8Panorama17WorkflowProcesses7Reports22haveAutoIncrementFieldEv @1127
    _ZN11DataManager8Panorama17WorkflowProcesses7Reports4initEPKc @1128
    _ZN11DataManager8Panorama17WorkflowProcesses7Reports4initEPN3bOS3XML7XMLNodeE @1129
    _ZN11DataManager8Panorama17WorkflowProcesses7Reports4initEv @1130
    _ZN11DataManager8Panorama17WorkflowProcesses7Reports5parseEPN3bOS3SQL14ResultSetFieldE @1131
    _ZN11DataManager8Panorama17WorkflowProcesses7Reports5parseEPN3bOS3SQL15ResultSetRecordE @1132
    _ZN11DataManager8Panorama17WorkflowProcesses7Reports5parseEPN3bOS3XML12XMLAttributeE @1133
    _ZN11DataManager8Panorama17WorkflowProcesses7Reports5parseEPN3bOS3XML7XMLNodeE @1134
    _ZN11DataManager8Panorama17WorkflowProcesses7Reports7isValidEv @1135
    _ZN11DataManager8Panorama17WorkflowProcesses7Reports9addReportERNS1_6ReportE @1136
    _ZN11DataManager8Panorama17WorkflowProcesses7Reports9setRecordERN3bOS3SQL15ResultSetRecordE @1137
    _ZN11DataManager8Panorama17WorkflowProcesses7ReportsC1EPN3bOS3XML7XMLNodeE @1138
    _ZN11DataManager8Panorama17WorkflowProcesses7ReportsC1Ev @1139
    _ZN11DataManager8Panorama17WorkflowProcesses7ReportsC2EPN3bOS3XML7XMLNodeE @1140
    _ZN11DataManager8Panorama17WorkflowProcesses7ReportsC2Ev @1141
    _ZN11DataManager8Panorama17WorkflowProcesses7ReportsD0Ev @1142
    _ZN11DataManager8Panorama17WorkflowProcesses7ReportsD1Ev @1143
    _ZN11DataManager8Panorama17WorkflowProcesses7ReportsD2Ev @1144
    _ZN11DataManager8Panorama17WorkflowProcesses7XMLLogs9MAIN_NODEE @1145 DATA
    _ZN11DataManager8Panorama17WorkflowProcesses8Activity10acGetWhereEv @1146
    _ZN11DataManager8Panorama17WorkflowProcesses8Activity10getXMLNodeEj @1147
    _ZN11DataManager8Panorama17WorkflowProcesses8Activity10isExitTypeEv @1148
    _ZN11DataManager8Panorama17WorkflowProcesses8Activity10setCreatedEv @1149
    _ZN11DataManager8Panorama17WorkflowProcesses8Activity10setRunningEv @1150
    _ZN11DataManager8Panorama17WorkflowProcesses8Activity11isAutomaticEv @1151
    _ZN11DataManager8Panorama17WorkflowProcesses8Activity11isCompletedEv @1152
    _ZN11DataManager8Panorama17WorkflowProcesses8Activity11isStartTypeEv @1153
    _ZN11DataManager8Panorama17WorkflowProcesses8Activity12getBehaviourEv @1154
    _ZN11DataManager8Panorama17WorkflowProcesses8Activity12getCatchTypeEv @1155
    _ZN11DataManager8Panorama17WorkflowProcesses8Activity12getSQLTablesEv @1156
    _ZN11DataManager8Panorama17WorkflowProcesses8Activity12isToRexecuteEv @1157
    _ZN11DataManager8Panorama17WorkflowProcesses8Activity12setCompletedEv @1158
    _ZN11DataManager8Panorama17WorkflowProcesses8Activity12setProcessIdEPKc @1159
    _ZN11DataManager8Panorama17WorkflowProcesses8Activity13getAttributesEv @1160
    _ZN11DataManager8Panorama17WorkflowProcesses8Activity13getNrExecutedEv @1161
    _ZN11DataManager8Panorama17WorkflowProcesses8Activity13isCatcherTypeEv @1162
    _ZN11DataManager8Panorama17WorkflowProcesses8Activity13setActivityIdEPKc @1163
    _ZN11DataManager8Panorama17WorkflowProcesses8Activity13setNrExecutedEi @1164
    _ZN11DataManager8Panorama17WorkflowProcesses8Activity14acGetTableNameEv @1165
    _ZN11DataManager8Panorama17WorkflowProcesses8Activity15getActivityNameEv @1166
    _ZN11DataManager8Panorama17WorkflowProcesses8Activity16setNotToRexecuteEv @1167
    _ZN11DataManager8Panorama17WorkflowProcesses8Activity17isAlreadyExecutedEv @1168
    _ZN11DataManager8Panorama17WorkflowProcesses8Activity17isWaitingForEventEv @1169
    _ZN11DataManager8Panorama17WorkflowProcesses8Activity18setWaitingForEventEv @1170
    _ZN11DataManager8Panorama17WorkflowProcesses8Activity20getReferenceActivityEv @1171
    _ZN11DataManager8Panorama17WorkflowProcesses8Activity21setAutoIncrementFieldEl @1172
    _ZN11DataManager8Panorama17WorkflowProcesses8Activity22haveAutoIncrementFieldEv @1173
    _ZN11DataManager8Panorama17WorkflowProcesses8Activity4initEPKc @1174
    _ZN11DataManager8Panorama17WorkflowProcesses8Activity4initEPN3bOS3XML7XMLNodeE @1175
    _ZN11DataManager8Panorama17WorkflowProcesses8Activity4initEv @1176
    _ZN11DataManager8Panorama17WorkflowProcesses8Activity5parseEPN3bOS3SQL14ResultSetFieldE @1177
    _ZN11DataManager8Panorama17WorkflowProcesses8Activity5parseEPN3bOS3SQL15ResultSetRecordE @1178
    _ZN11DataManager8Panorama17WorkflowProcesses8Activity5parseEPN3bOS3XML12XMLAttributeE @1179
    _ZN11DataManager8Panorama17WorkflowProcesses8Activity5parseEPN3bOS3XML7XMLNodeE @1180
    _ZN11DataManager8Panorama17WorkflowProcesses8Activity6getLogEv @1181
    _ZN11DataManager8Panorama17WorkflowProcesses8Activity7equalToEPN3bOS11Collections15CollectionEntryE @1182
    _ZN11DataManager8Panorama17WorkflowProcesses8Activity7getLogsEv @1183
    _ZN11DataManager8Panorama17WorkflowProcesses8Activity7getTypeEv @1184
    _ZN11DataManager8Panorama17WorkflowProcesses8Activity7isErrorEv @1185
    _ZN11DataManager8Panorama17WorkflowProcesses8Activity7isValidEv @1186
    _ZN11DataManager8Panorama17WorkflowProcesses8Activity7setNameEPKc @1187
    _ZN11DataManager8Panorama17WorkflowProcesses8Activity8getOwnerEv @1188
    _ZN11DataManager8Panorama17WorkflowProcesses8Activity8isManualEv @1189
    _ZN11DataManager8Panorama17WorkflowProcesses8Activity8isQueuedEv @1190
    _ZN11DataManager8Panorama17WorkflowProcesses8Activity8setErrorEv @1191
    _ZN11DataManager8Panorama17WorkflowProcesses8Activity8setOwnerERKSs @1192
    _ZN11DataManager8Panorama17WorkflowProcesses8Activity9getGrantsEv @1193
    _ZN11DataManager8Panorama17WorkflowProcesses8Activity9getResultEv @1194
    _ZN11DataManager8Panorama17WorkflowProcesses8Activity9getStatusEv @1195
    _ZN11DataManager8Panorama17WorkflowProcesses8Activity9isCreatedEv @1196
    _ZN11DataManager8Panorama17WorkflowProcesses8Activity9isEndTypeEv @1197
    _ZN11DataManager8Panorama17WorkflowProcesses8Activity9isRunningEv @1198
    _ZN11DataManager8Panorama17WorkflowProcesses8Activity9setManualEv @1199
    _ZN11DataManager8Panorama17WorkflowProcesses8Activity9setQueuedEv @1200
    _ZN11DataManager8Panorama17WorkflowProcesses8Activity9setRecordERN3bOS3SQL15ResultSetRecordE @1201
    _ZN11DataManager8Panorama17WorkflowProcesses8Activity9setResultERKSs @1202
    _ZN11DataManager8Panorama17WorkflowProcesses8Activity9setStatusERKSs @1203
    _ZN11DataManager8Panorama17WorkflowProcesses8ActivityC1EPN3bOS3XML7XMLNodeE @1204
    _ZN11DataManager8Panorama17WorkflowProcesses8ActivityC1Ev @1205
    _ZN11DataManager8Panorama17WorkflowProcesses8ActivityC2EPN3bOS3XML7XMLNodeE @1206
    _ZN11DataManager8Panorama17WorkflowProcesses8ActivityC2Ev @1207
    _ZN11DataManager8Panorama17WorkflowProcesses8ActivityD0Ev @1208
    _ZN11DataManager8Panorama17WorkflowProcesses8ActivityD1Ev @1209
    _ZN11DataManager8Panorama17WorkflowProcesses8ActivityD2Ev @1210
    _ZN11DataManager8Panorama17WorkflowProcesses8Messages10acGetWhereEv @1211
    _ZN11DataManager8Panorama17WorkflowProcesses8Messages10addMessageERNS1_7MessageE @1212
    _ZN11DataManager8Panorama17WorkflowProcesses8Messages10getXMLNodeEj @1213
    _ZN11DataManager8Panorama17WorkflowProcesses8Messages11addMessagesERS2_ @1214
    _ZN11DataManager8Panorama17WorkflowProcesses8Messages14acGetTableNameEv @1215
    _ZN11DataManager8Panorama17WorkflowProcesses8Messages14addSQLCommandsERN3bOS3SQL11SQLCommandsEi @1216
    _ZN11DataManager8Panorama17WorkflowProcesses8Messages21setAutoIncrementFieldEl @1217
    _ZN11DataManager8Panorama17WorkflowProcesses8Messages22haveAutoIncrementFieldEv @1218
    _ZN11DataManager8Panorama17WorkflowProcesses8Messages4initEPKc @1219
    _ZN11DataManager8Panorama17WorkflowProcesses8Messages4initEPN3bOS3XML7XMLNodeE @1220
    _ZN11DataManager8Panorama17WorkflowProcesses8Messages4initEv @1221
    _ZN11DataManager8Panorama17WorkflowProcesses8Messages5parseEPN3bOS3SQL14ResultSetFieldE @1222
    _ZN11DataManager8Panorama17WorkflowProcesses8Messages5parseEPN3bOS3SQL15ResultSetRecordE @1223
    _ZN11DataManager8Panorama17WorkflowProcesses8Messages5parseEPN3bOS3XML12XMLAttributeE @1224
    _ZN11DataManager8Panorama17WorkflowProcesses8Messages5parseEPN3bOS3XML7XMLNodeE @1225
    _ZN11DataManager8Panorama17WorkflowProcesses8Messages7isValidEv @1226
    _ZN11DataManager8Panorama17WorkflowProcesses8Messages9setRecordERN3bOS3SQL15ResultSetRecordE @1227
    _ZN11DataManager8Panorama17WorkflowProcesses8MessagesC1EPN3bOS3XML7XMLNodeE @1228
    _ZN11DataManager8Panorama17WorkflowProcesses8MessagesC1Ev @1229
    _ZN11DataManager8Panorama17WorkflowProcesses8MessagesC2EPN3bOS3XML7XMLNodeE @1230
    _ZN11DataManager8Panorama17WorkflowProcesses8MessagesC2Ev @1231
    _ZN11DataManager8Panorama17WorkflowProcesses8MessagesD0Ev @1232
    _ZN11DataManager8Panorama17WorkflowProcesses8MessagesD1Ev @1233
    _ZN11DataManager8Panorama17WorkflowProcesses8MessagesD2Ev @1234
    _ZN11DataManager8Panorama17WorkflowProcesses9Behaviour10getXMLNodeEj @1235
    _ZN11DataManager8Panorama17WorkflowProcesses9Behaviour11getDataTypeEv @1236
    _ZN11DataManager8Panorama17WorkflowProcesses9Behaviour12getBehaviourERSs @1237
    _ZN11DataManager8Panorama17WorkflowProcesses9Behaviour13getScriptTypeEv @1238
    _ZN11DataManager8Panorama17WorkflowProcesses9Behaviour16getScriptCommandEv @1239
    _ZN11DataManager8Panorama17WorkflowProcesses9Behaviour17getBehaviourStartEv @1240
    _ZN11DataManager8Panorama17WorkflowProcesses9Behaviour17isToRexecuteStartEv @1241
    _ZN11DataManager8Panorama17WorkflowProcesses9Behaviour18getBehaviourFinishEv @1242
    _ZN11DataManager8Panorama17WorkflowProcesses9Behaviour20isAutomaticExecutionEv @1243
    _ZN11DataManager8Panorama17WorkflowProcesses9Behaviour21getBehaviourExecutionEv @1244
    _ZN11DataManager8Panorama17WorkflowProcesses9Behaviour21setNotToRexecuteStartEv @1245
    _ZN11DataManager8Panorama17WorkflowProcesses9Behaviour4initEPKc @1246
    _ZN11DataManager8Panorama17WorkflowProcesses9Behaviour4initEPN3bOS3XML7XMLNodeE @1247
    _ZN11DataManager8Panorama17WorkflowProcesses9Behaviour4initEv @1248
    _ZN11DataManager8Panorama17WorkflowProcesses9Behaviour5parseEPN3bOS3XML12XMLAttributeE @1249
    _ZN11DataManager8Panorama17WorkflowProcesses9Behaviour5parseEPN3bOS3XML7XMLNodeE @1250
    _ZN11DataManager8Panorama17WorkflowProcesses9Behaviour7isValidEv @1251
    _ZN11DataManager8Panorama17WorkflowProcesses9BehaviourC1EPN3bOS3XML7XMLNodeE @1252
    _ZN11DataManager8Panorama17WorkflowProcesses9BehaviourC1Ev @1253
    _ZN11DataManager8Panorama17WorkflowProcesses9BehaviourC2EPN3bOS3XML7XMLNodeE @1254
    _ZN11DataManager8Panorama17WorkflowProcesses9BehaviourC2Ev @1255
    _ZN11DataManager8Panorama17WorkflowProcesses9BehaviourD0Ev @1256
    _ZN11DataManager8Panorama17WorkflowProcesses9BehaviourD1Ev @1257
    _ZN11DataManager8Panorama17WorkflowProcesses9BehaviourD2Ev @1258
    _ZN11DataManager8Panorama17WorkflowProcesses9SQLReport10TABLE_NAMEE @1259 DATA
    _ZN11DataManager8Panorama17WorkflowProcesses9SQLReport14DATETIME_FIELDE @1260 DATA
    _ZN11DataManager8Panorama17WorkflowProcesses9SQLReport17DESCRIPTION_FIELDE @1261 DATA
    _ZN11DataManager8Panorama17WorkflowProcesses9XMLReport18DATETIME_ATTRIBUTEE @1262 DATA
    _ZN11DataManager8Panorama17WorkflowProcesses9XMLReport18DATE_TIME_VARIABLEE @1263 DATA
    _ZN11DataManager8Panorama17WorkflowProcesses9XMLReport19PROCESS_ID_VARIABLEE @1264 DATA
    _ZN11DataManager8Panorama17WorkflowProcesses9XMLReport22ACTIVITY_NAME_VARIABLEE @1265 DATA
    _ZN11DataManager8Panorama17WorkflowProcesses9XMLReport22WORKFLOW_NAME_VARIABLEE @1266 DATA
    _ZN11DataManager8Panorama17WorkflowProcesses9XMLReport23WORKFLOW_LEVEL_VARIABLEE @1267 DATA
    _ZN11DataManager8Panorama17WorkflowProcesses9XMLReport9MAIN_NODEE @1268 DATA
    _ZN11DataManager8Panorama17WorkflowProcesses9XMLScript13XML_XSLT_TYPEE @1269 DATA
    _ZN11DataManager8Panorama17WorkflowProcesses9XMLScript14API_ASYNC_TYPEE @1270 DATA
    _ZN11DataManager8Panorama17WorkflowProcesses9XMLScript14API_SYNCH_TYPEE @1271 DATA
    _ZN11DataManager8Panorama17WorkflowProcesses9XMLScript14TYPE_ATTRIBUTEE @1272 DATA
    _ZN11DataManager8Panorama17WorkflowProcesses9XMLScript15EMAIL_SMTP_TYPEE @1273 DATA
    _ZN11DataManager8Panorama17WorkflowProcesses9XMLScript16EVENT_MAKER_TYPEE @1274 DATA
    _ZN11DataManager8Panorama17WorkflowProcesses9XMLScript17LOOP_COUNTER_TYPEE @1275 DATA
    _ZN11DataManager8Panorama17WorkflowProcesses9XMLScript18DATATYPE_ATTRIBUTEE @1276 DATA
    _ZN11DataManager8Panorama17WorkflowProcesses9XMLScript18SUBFLOW_ASYNC_TYPEE @1277 DATA
    _ZN11DataManager8Panorama17WorkflowProcesses9XMLScript18SUBFLOW_SYNCH_TYPEE @1278 DATA
    _ZN11DataManager8Panorama17WorkflowProcesses9XMLScript18XML_FILE_READ_TYPEE @1279 DATA
    _ZN11DataManager8Panorama17WorkflowProcesses9XMLScript19EVENT_CONSUMER_TYPEE @1280 DATA
    _ZN11DataManager8Panorama17WorkflowProcesses9XMLScript19XML_FILE_WRITE_TYPEE @1281 DATA
    _ZN11DataManager8Panorama17WorkflowProcesses9XMLScript20APPLICATION_API_TYPEE @1282 DATA
    _ZN11DataManager8Panorama17WorkflowProcesses9XMLScript20EVAL_EXPRESSION_TYPEE @1283 DATA
    _ZN11DataManager8Panorama17WorkflowProcesses9XMLScript20LOOP_EXPRESSION_TYPEE @1284 DATA
    _ZN11DataManager8Panorama17WorkflowProcesses9XMLScript20SUBFLOW_SPECIAL_TYPEE @1285 DATA
    _ZN11DataManager8Panorama17WorkflowProcesses9XMLScript9MAIN_NODEE @1286 DATA
    _ZN11DataManager8Panorama17WorkflowProcesses9XMLScript9NONE_TYPEE @1287 DATA
    _ZN11DataManager8Panorama17WorkflowProcesses9XMLStatus14DATE_ATTRIBUTEE @1288 DATA
    _ZN11DataManager8Panorama17WorkflowProcesses9XMLStatus9MAIN_NODEE @1289 DATA
    _ZN11DataManager8Panorama20WorkflowRelevantData10Attributes10acGetWhereEv @1290
    _ZN11DataManager8Panorama20WorkflowRelevantData10Attributes10getXMLNodeEj @1291
    _ZN11DataManager8Panorama20WorkflowRelevantData10Attributes12setProcessIdEPKc @1292
    _ZN11DataManager8Panorama20WorkflowRelevantData10Attributes13setActivityIdEPKc @1293
    _ZN11DataManager8Panorama20WorkflowRelevantData10Attributes14acGetTableNameEv @1294
    _ZN11DataManager8Panorama20WorkflowRelevantData10Attributes14addSQLCommandsERN3bOS3SQL11SQLCommandsEi @1295
    _ZN11DataManager8Panorama20WorkflowRelevantData10Attributes16updateAttributesERS2_ @1296
    _ZN11DataManager8Panorama20WorkflowRelevantData10Attributes21setAutoIncrementFieldEl @1297
    _ZN11DataManager8Panorama20WorkflowRelevantData10Attributes22haveAutoIncrementFieldEv @1298
    _ZN11DataManager8Panorama20WorkflowRelevantData10Attributes3addEPKcS4_ @1299
    _ZN11DataManager8Panorama20WorkflowRelevantData10Attributes3addERNS1_9AttributeE @1300
    _ZN11DataManager8Panorama20WorkflowRelevantData10Attributes3addERS2_ @1301
    _ZN11DataManager8Panorama20WorkflowRelevantData10Attributes3getEPKc @1302
    _ZN11DataManager8Panorama20WorkflowRelevantData10Attributes4initEPKc @1303
    _ZN11DataManager8Panorama20WorkflowRelevantData10Attributes4initEPN3bOS3XML7XMLNodeE @1304
    _ZN11DataManager8Panorama20WorkflowRelevantData10Attributes4initEv @1305
    _ZN11DataManager8Panorama20WorkflowRelevantData10Attributes5parseEPN3bOS3SQL14ResultSetFieldE @1306
    _ZN11DataManager8Panorama20WorkflowRelevantData10Attributes5parseEPN3bOS3SQL15ResultSetRecordE @1307
    _ZN11DataManager8Panorama20WorkflowRelevantData10Attributes5parseEPN3bOS3XML12XMLAttributeE @1308
    _ZN11DataManager8Panorama20WorkflowRelevantData10Attributes5parseEPN3bOS3XML7XMLNodeE @1309
    _ZN11DataManager8Panorama20WorkflowRelevantData10Attributes6assignERS2_ @1310
    _ZN11DataManager8Panorama20WorkflowRelevantData10Attributes6removeEPKc @1311
    _ZN11DataManager8Panorama20WorkflowRelevantData10Attributes7isValidEv @1312
    _ZN11DataManager8Panorama20WorkflowRelevantData10Attributes9setRecordERN3bOS3SQL15ResultSetRecordE @1313
    _ZN11DataManager8Panorama20WorkflowRelevantData10AttributesC1EPN3bOS3XML7XMLNodeE @1314
    _ZN11DataManager8Panorama20WorkflowRelevantData10AttributesC1Ev @1315
    _ZN11DataManager8Panorama20WorkflowRelevantData10AttributesC2EPN3bOS3XML7XMLNodeE @1316
    _ZN11DataManager8Panorama20WorkflowRelevantData10AttributesC2Ev @1317
    _ZN11DataManager8Panorama20WorkflowRelevantData10AttributesD0Ev @1318
    _ZN11DataManager8Panorama20WorkflowRelevantData10AttributesD1Ev @1319
    _ZN11DataManager8Panorama20WorkflowRelevantData10AttributesD2Ev @1320
    _ZN11DataManager8Panorama20WorkflowRelevantData10AttributesaSERKS2_ @1321
    _ZN11DataManager8Panorama20WorkflowRelevantData12SQLAttribute10NAME_FIELDE @1322 DATA
    _ZN11DataManager8Panorama20WorkflowRelevantData12SQLAttribute10TABLE_NAMEE @1323 DATA
    _ZN11DataManager8Panorama20WorkflowRelevantData12SQLAttribute10TYPE_FIELDE @1324 DATA
    _ZN11DataManager8Panorama20WorkflowRelevantData12SQLAttribute11VALUE_FIELDE @1325 DATA
    _ZN11DataManager8Panorama20WorkflowRelevantData12SQLAttribute15DIRECTION_FIELDE @1326 DATA
    _ZN11DataManager8Panorama20WorkflowRelevantData12XMLAttribute10VALUE_NODEE @1327 DATA
    _ZN11DataManager8Panorama20WorkflowRelevantData12XMLAttribute11NUMBER_TYPEE @1328 DATA
    _ZN11DataManager8Panorama20WorkflowRelevantData12XMLAttribute11STRING_TYPEE @1329 DATA
    _ZN11DataManager8Panorama20WorkflowRelevantData12XMLAttribute14DIRECTION_NONEE @1330 DATA
    _ZN11DataManager8Panorama20WorkflowRelevantData12XMLAttribute14DIRECTION_TASKE @1331 DATA
    _ZN11DataManager8Panorama20WorkflowRelevantData12XMLAttribute14NAME_ATTRIBUTEE @1332 DATA
    _ZN11DataManager8Panorama20WorkflowRelevantData12XMLAttribute14TYPE_ATTRIBUTEE @1333 DATA
    _ZN11DataManager8Panorama20WorkflowRelevantData12XMLAttribute15DIRECTION_INPUTE @1334 DATA
    _ZN11DataManager8Panorama20WorkflowRelevantData12XMLAttribute16DIRECTION_OUTPUTE @1335 DATA
    _ZN11DataManager8Panorama20WorkflowRelevantData12XMLAttribute18DIRECTION_CONSTANTE @1336 DATA
    _ZN11DataManager8Panorama20WorkflowRelevantData12XMLAttribute19DIRECTION_ATTRIBUTEE @1337 DATA
    _ZN11DataManager8Panorama20WorkflowRelevantData12XMLAttribute20DIRECTION_NOTMIGRATEE @1338 DATA
    _ZN11DataManager8Panorama20WorkflowRelevantData12XMLAttribute21DIRECTION_INPUTOUTPUTE @1339 DATA
    _ZN11DataManager8Panorama20WorkflowRelevantData12XMLAttribute8XML_TYPEE @1340 DATA
    _ZN11DataManager8Panorama20WorkflowRelevantData12XMLAttribute9MAIN_NODEE @1341 DATA
    _ZN11DataManager8Panorama20WorkflowRelevantData13XMLAttributes9MAIN_NODEE @1342 DATA
    _ZN11DataManager8Panorama20WorkflowRelevantData9Attribute10acGetWhereEv @1343
    _ZN11DataManager8Panorama20WorkflowRelevantData9Attribute10getXMLNodeEj @1344
    _ZN11DataManager8Panorama20WorkflowRelevantData9Attribute12getDirectionEv @1345
    _ZN11DataManager8Panorama20WorkflowRelevantData9Attribute12setDirectionERKSs @1346
    _ZN11DataManager8Panorama20WorkflowRelevantData9Attribute14acGetTableNameEv @1347
    _ZN11DataManager8Panorama20WorkflowRelevantData9Attribute21setAutoIncrementFieldEl @1348
    _ZN11DataManager8Panorama20WorkflowRelevantData9Attribute22haveAutoIncrementFieldEv @1349
    _ZN11DataManager8Panorama20WorkflowRelevantData9Attribute4initEPN3bOS3XML7XMLNodeE @1350
    _ZN11DataManager8Panorama20WorkflowRelevantData9Attribute4initEv @1351
    _ZN11DataManager8Panorama20WorkflowRelevantData9Attribute5parseEPN3bOS3SQL14ResultSetFieldE @1352
    _ZN11DataManager8Panorama20WorkflowRelevantData9Attribute5parseEPN3bOS3SQL15ResultSetRecordE @1353
    _ZN11DataManager8Panorama20WorkflowRelevantData9Attribute5parseEPN3bOS3XML12XMLAttributeE @1354
    _ZN11DataManager8Panorama20WorkflowRelevantData9Attribute5parseEPN3bOS3XML7XMLNodeE @1355
    _ZN11DataManager8Panorama20WorkflowRelevantData9Attribute7equalToEPN3bOS11Collections15CollectionEntryE @1356
    _ZN11DataManager8Panorama20WorkflowRelevantData9Attribute7getNameEv @1357
    _ZN11DataManager8Panorama20WorkflowRelevantData9Attribute7getTypeEv @1358
    _ZN11DataManager8Panorama20WorkflowRelevantData9Attribute7isValidEv @1359
    _ZN11DataManager8Panorama20WorkflowRelevantData9Attribute7setNameERKSs @1360
    _ZN11DataManager8Panorama20WorkflowRelevantData9Attribute7setTypeERKSs @1361
    _ZN11DataManager8Panorama20WorkflowRelevantData9Attribute8getValueEv @1362
    _ZN11DataManager8Panorama20WorkflowRelevantData9Attribute8setValueERKSs @1363
    _ZN11DataManager8Panorama20WorkflowRelevantData9Attribute8setValueEi @1364
    _ZN11DataManager8Panorama20WorkflowRelevantData9Attribute9setRecordERN3bOS3SQL15ResultSetRecordE @1365
    _ZN11DataManager8Panorama20WorkflowRelevantData9AttributeC1EPN3bOS3XML7XMLNodeE @1366
    _ZN11DataManager8Panorama20WorkflowRelevantData9AttributeC1EPS2_ @1367
    _ZN11DataManager8Panorama20WorkflowRelevantData9AttributeC1ERKSsS4_ @1368
    _ZN11DataManager8Panorama20WorkflowRelevantData9AttributeC1Ev @1369
    _ZN11DataManager8Panorama20WorkflowRelevantData9AttributeC2EPN3bOS3XML7XMLNodeE @1370
    _ZN11DataManager8Panorama20WorkflowRelevantData9AttributeC2EPS2_ @1371
    _ZN11DataManager8Panorama20WorkflowRelevantData9AttributeC2ERKSsS4_ @1372
    _ZN11DataManager8Panorama20WorkflowRelevantData9AttributeC2Ev @1373
    _ZN11DataManager8Panorama20WorkflowRelevantData9AttributeD0Ev @1374
    _ZN11DataManager8Panorama20WorkflowRelevantData9AttributeD1Ev @1375
    _ZN11DataManager8Panorama20WorkflowRelevantData9AttributeD2Ev @1376
    _ZN11DataManager8Panorama24WorkflowApplicationsData11Application10getLibraryEv @1377
    _ZN11DataManager8Panorama24WorkflowApplicationsData11Application10getXMLNodeEj @1378
    _ZN11DataManager8Panorama24WorkflowApplicationsData11Application12getFunctionsEv @1379
    _ZN11DataManager8Panorama24WorkflowApplicationsData11Application21getExtendedAttributesEv @1380
    _ZN11DataManager8Panorama24WorkflowApplicationsData11Application4initEPN3bOS3XML7XMLNodeE @1381
    _ZN11DataManager8Panorama24WorkflowApplicationsData11Application4initERN3bOS2IO4FileE @1382
    _ZN11DataManager8Panorama24WorkflowApplicationsData11Application4initEv @1383
    _ZN11DataManager8Panorama24WorkflowApplicationsData11Application5parseEPN3bOS3XML12XMLAttributeE @1384
    _ZN11DataManager8Panorama24WorkflowApplicationsData11Application5parseEPN3bOS3XML7XMLNodeE @1385
    _ZN11DataManager8Panorama24WorkflowApplicationsData11Application7equalToEPN3bOS11Collections15CollectionEntryE @1386
    _ZN11DataManager8Panorama24WorkflowApplicationsData11Application7getHostEv @1387
    _ZN11DataManager8Panorama24WorkflowApplicationsData11Application7getNameEv @1388
    _ZN11DataManager8Panorama24WorkflowApplicationsData11Application7getPortEv @1389
    _ZN11DataManager8Panorama24WorkflowApplicationsData11Application7getTypeEv @1390
    _ZN11DataManager8Panorama24WorkflowApplicationsData11Application7isValidEv @1391
    _ZN11DataManager8Panorama24WorkflowApplicationsData11Application7setNameERKSs @1392
    _ZN11DataManager8Panorama24WorkflowApplicationsData11ApplicationC1EPN3bOS3XML7XMLNodeE @1393
    _ZN11DataManager8Panorama24WorkflowApplicationsData11ApplicationC1Ev @1394
    _ZN11DataManager8Panorama24WorkflowApplicationsData11ApplicationC2EPN3bOS3XML7XMLNodeE @1395
    _ZN11DataManager8Panorama24WorkflowApplicationsData11ApplicationC2Ev @1396
    _ZN11DataManager8Panorama24WorkflowApplicationsData11ApplicationD0Ev @1397
    _ZN11DataManager8Panorama24WorkflowApplicationsData11ApplicationD1Ev @1398
    _ZN11DataManager8Panorama24WorkflowApplicationsData11ApplicationD2Ev @1399
    _ZN11DataManager8Panorama24WorkflowApplicationsData12Applications10getXMLNodeEj @1400
    _ZN11DataManager8Panorama24WorkflowApplicationsData12Applications3getEPKc @1401
    _ZN11DataManager8Panorama24WorkflowApplicationsData12Applications4initEN3bOS2IO4FileE @1402
    _ZN11DataManager8Panorama24WorkflowApplicationsData12Applications4initEPN3bOS3XML7XMLNodeE @1403
    _ZN11DataManager8Panorama24WorkflowApplicationsData12Applications4initEv @1404
    _ZN11DataManager8Panorama24WorkflowApplicationsData12Applications5parseEPN3bOS3XML12XMLAttributeE @1405
    _ZN11DataManager8Panorama24WorkflowApplicationsData12Applications5parseEPN3bOS3XML7XMLNodeE @1406
    _ZN11DataManager8Panorama24WorkflowApplicationsData12Applications7isValidEv @1407
    _ZN11DataManager8Panorama24WorkflowApplicationsData12ApplicationsC1EPN3bOS3XML7XMLNodeE @1408
    _ZN11DataManager8Panorama24WorkflowApplicationsData12ApplicationsC1Ev @1409
    _ZN11DataManager8Panorama24WorkflowApplicationsData12ApplicationsC2EPN3bOS3XML7XMLNodeE @1410
    _ZN11DataManager8Panorama24WorkflowApplicationsData12ApplicationsC2Ev @1411
    _ZN11DataManager8Panorama24WorkflowApplicationsData12ApplicationsD0Ev @1412
    _ZN11DataManager8Panorama24WorkflowApplicationsData12ApplicationsD1Ev @1413
    _ZN11DataManager8Panorama24WorkflowApplicationsData12ApplicationsD2Ev @1414
    _ZN11DataManager8Panorama24WorkflowApplicationsData14XMLApplication12LIBRARY_TYPEE @1415 DATA
    _ZN11DataManager8Panorama24WorkflowApplicationsData14XMLApplication12PROCESS_TYPEE @1416 DATA
    _ZN11DataManager8Panorama24WorkflowApplicationsData14XMLApplication13DLL_ATTRIBUTEE @1417 DATA
    _ZN11DataManager8Panorama24WorkflowApplicationsData14XMLApplication14NAME_ATTRIBUTEE @1418 DATA
    _ZN11DataManager8Panorama24WorkflowApplicationsData14XMLApplication14TYPE_ATTRIBUTEE @1419 DATA
    _ZN11DataManager8Panorama24WorkflowApplicationsData14XMLApplication15EXECUTABLE_TYPEE @1420 DATA
    _ZN11DataManager8Panorama24WorkflowApplicationsData14XMLApplication9HOST_NODEE @1421 DATA
    _ZN11DataManager8Panorama24WorkflowApplicationsData14XMLApplication9MAIN_NODEE @1422 DATA
    _ZN11DataManager8Panorama24WorkflowApplicationsData14XMLApplication9PORT_NODEE @1423 DATA
    _ZN11DataManager8Panorama24WorkflowApplicationsData15XMLApplications9MAIN_NODEE @1424 DATA
    _ZN11DataManager8Panorama24WorkflowApplicationsData19ApplicationFunction10getXMLNodeEj @1425
    _ZN11DataManager8Panorama24WorkflowApplicationsData19ApplicationFunction12isScriptableEv @1426
    _ZN11DataManager8Panorama24WorkflowApplicationsData19ApplicationFunction13getParametersEv @1427
    _ZN11DataManager8Panorama24WorkflowApplicationsData19ApplicationFunction14getApplicationEv @1428
    _ZN11DataManager8Panorama24WorkflowApplicationsData19ApplicationFunction4initEPKc @1429
    _ZN11DataManager8Panorama24WorkflowApplicationsData19ApplicationFunction4initEPN3bOS3XML7XMLNodeE @1430
    _ZN11DataManager8Panorama24WorkflowApplicationsData19ApplicationFunction4initEv @1431
    _ZN11DataManager8Panorama24WorkflowApplicationsData19ApplicationFunction5parseEPN3bOS3XML12XMLAttributeE @1432
    _ZN11DataManager8Panorama24WorkflowApplicationsData19ApplicationFunction5parseEPN3bOS3XML7XMLNodeE @1433
    _ZN11DataManager8Panorama24WorkflowApplicationsData19ApplicationFunction7equalToEPN3bOS11Collections15CollectionEntryE @1434
    _ZN11DataManager8Panorama24WorkflowApplicationsData19ApplicationFunction7getNameEv @1435
    _ZN11DataManager8Panorama24WorkflowApplicationsData19ApplicationFunction7isValidEv @1436
    _ZN11DataManager8Panorama24WorkflowApplicationsData19ApplicationFunction7setNameERKSs @1437
    _ZN11DataManager8Panorama24WorkflowApplicationsData19ApplicationFunction9getResultEv @1438
    _ZN11DataManager8Panorama24WorkflowApplicationsData19ApplicationFunctionC1EPN3bOS3XML7XMLNodeE @1439
    _ZN11DataManager8Panorama24WorkflowApplicationsData19ApplicationFunctionC1Ev @1440
    _ZN11DataManager8Panorama24WorkflowApplicationsData19ApplicationFunctionC2EPN3bOS3XML7XMLNodeE @1441
    _ZN11DataManager8Panorama24WorkflowApplicationsData19ApplicationFunctionC2Ev @1442
    _ZN11DataManager8Panorama24WorkflowApplicationsData19ApplicationFunctionD0Ev @1443
    _ZN11DataManager8Panorama24WorkflowApplicationsData19ApplicationFunctionD1Ev @1444
    _ZN11DataManager8Panorama24WorkflowApplicationsData19ApplicationFunctionD2Ev @1445
    _ZN11DataManager8Panorama24WorkflowApplicationsData20ApplicationFunctions10getXMLNodeEj @1446
    _ZN11DataManager8Panorama24WorkflowApplicationsData20ApplicationFunctions3getEPKc @1447
    _ZN11DataManager8Panorama24WorkflowApplicationsData20ApplicationFunctions4initEPN3bOS3XML7XMLNodeE @1448
    _ZN11DataManager8Panorama24WorkflowApplicationsData20ApplicationFunctions4initEv @1449
    _ZN11DataManager8Panorama24WorkflowApplicationsData20ApplicationFunctions5parseEPN3bOS3XML12XMLAttributeE @1450
    _ZN11DataManager8Panorama24WorkflowApplicationsData20ApplicationFunctions5parseEPN3bOS3XML7XMLNodeE @1451
    _ZN11DataManager8Panorama24WorkflowApplicationsData20ApplicationFunctions7isValidEv @1452
    _ZN11DataManager8Panorama24WorkflowApplicationsData20ApplicationFunctionsC1EPN3bOS3XML7XMLNodeE @1453
    _ZN11DataManager8Panorama24WorkflowApplicationsData20ApplicationFunctionsC1Ev @1454
    _ZN11DataManager8Panorama24WorkflowApplicationsData20ApplicationFunctionsC2EPN3bOS3XML7XMLNodeE @1455
    _ZN11DataManager8Panorama24WorkflowApplicationsData20ApplicationFunctionsC2Ev @1456
    _ZN11DataManager8Panorama24WorkflowApplicationsData20ApplicationFunctionsD0Ev @1457
    _ZN11DataManager8Panorama24WorkflowApplicationsData20ApplicationFunctionsD1Ev @1458
    _ZN11DataManager8Panorama24WorkflowApplicationsData20ApplicationFunctionsD2Ev @1459
    _ZN11DataManager8Panorama24WorkflowApplicationsData22XMLApplicationFunction11SCRIPT_TYPEE @1460 DATA
    _ZN11DataManager8Panorama24WorkflowApplicationsData22XMLApplicationFunction14NAME_ATTRIBUTEE @1461 DATA
    _ZN11DataManager8Panorama24WorkflowApplicationsData22XMLApplicationFunction14TYPE_ATTRIBUTEE @1462 DATA
    _ZN11DataManager8Panorama24WorkflowApplicationsData22XMLApplicationFunction9MAIN_NODEE @1463 DATA
    _ZN11DataManager8Panorama24WorkflowApplicationsData23XMLApplicationFunctions9MAIN_NODEE @1464 DATA
    _ZN11DataManager8Panorama24WorkflowApplicationsData25ApplicationFunctionResult10getMessageEv @1465
    _ZN11DataManager8Panorama24WorkflowApplicationsData25ApplicationFunctionResult10getXMLNodeEj @1466
    _ZN11DataManager8Panorama24WorkflowApplicationsData25ApplicationFunctionResult10setMessageERKSs @1467
    _ZN11DataManager8Panorama24WorkflowApplicationsData25ApplicationFunctionResult13getParametersEv @1468
    _ZN11DataManager8Panorama24WorkflowApplicationsData25ApplicationFunctionResult4initEPKc @1469
    _ZN11DataManager8Panorama24WorkflowApplicationsData25ApplicationFunctionResult4initEPN3bOS3XML7XMLNodeE @1470
    _ZN11DataManager8Panorama24WorkflowApplicationsData25ApplicationFunctionResult4initEv @1471
    _ZN11DataManager8Panorama24WorkflowApplicationsData25ApplicationFunctionResult5parseEPN3bOS3XML12XMLAttributeE @1472
    _ZN11DataManager8Panorama24WorkflowApplicationsData25ApplicationFunctionResult5parseEPN3bOS3XML7XMLNodeE @1473
    _ZN11DataManager8Panorama24WorkflowApplicationsData25ApplicationFunctionResult7getCodeEv @1474
    _ZN11DataManager8Panorama24WorkflowApplicationsData25ApplicationFunctionResult7isValidEv @1475
    _ZN11DataManager8Panorama24WorkflowApplicationsData25ApplicationFunctionResult7setCodeEl @1476
    _ZN11DataManager8Panorama24WorkflowApplicationsData25ApplicationFunctionResultC1EPN3bOS3XML7XMLNodeE @1477
    _ZN11DataManager8Panorama24WorkflowApplicationsData25ApplicationFunctionResultC1Ev @1478
    _ZN11DataManager8Panorama24WorkflowApplicationsData25ApplicationFunctionResultC2EPN3bOS3XML7XMLNodeE @1479
    _ZN11DataManager8Panorama24WorkflowApplicationsData25ApplicationFunctionResultC2Ev @1480
    _ZN11DataManager8Panorama24WorkflowApplicationsData25ApplicationFunctionResultD0Ev @1481
    _ZN11DataManager8Panorama24WorkflowApplicationsData25ApplicationFunctionResultD1Ev @1482
    _ZN11DataManager8Panorama24WorkflowApplicationsData25ApplicationFunctionResultD2Ev @1483
    _ZN11DataManager8Panorama24WorkflowApplicationsData28XMLApplicationFunctionResult12MESSAGE_NODEE @1484 DATA
    _ZN11DataManager8Panorama24WorkflowApplicationsData28XMLApplicationFunctionResult14CODE_ATTRIBUTEE @1485 DATA
    _ZN11DataManager8Panorama24WorkflowApplicationsData28XMLApplicationFunctionResult9MAIN_NODEE @1486 DATA
    _ZN11DataManager8Panorama24WorkflowParticipantsData4Role10acGetWhereEv @1487
    _ZN11DataManager8Panorama24WorkflowParticipantsData4Role10getXMLNodeEj @1488
    _ZN11DataManager8Panorama24WorkflowParticipantsData4Role14acGetTableNameEv @1489
    _ZN11DataManager8Panorama24WorkflowParticipantsData4Role21setAutoIncrementFieldEl @1490
    _ZN11DataManager8Panorama24WorkflowParticipantsData4Role22haveAutoIncrementFieldEv @1491
    _ZN11DataManager8Panorama24WorkflowParticipantsData4Role4initEPKc @1492
    _ZN11DataManager8Panorama24WorkflowParticipantsData4Role4initEPN3bOS3XML7XMLNodeE @1493
    _ZN11DataManager8Panorama24WorkflowParticipantsData4Role4initEv @1494
    _ZN11DataManager8Panorama24WorkflowParticipantsData4Role5parseEPN3bOS3SQL14ResultSetFieldE @1495
    _ZN11DataManager8Panorama24WorkflowParticipantsData4Role5parseEPN3bOS3SQL15ResultSetRecordE @1496
    _ZN11DataManager8Panorama24WorkflowParticipantsData4Role5parseEPN3bOS3XML12XMLAttributeE @1497
    _ZN11DataManager8Panorama24WorkflowParticipantsData4Role5parseEPN3bOS3XML7XMLNodeE @1498
    _ZN11DataManager8Panorama24WorkflowParticipantsData4Role6getKeyEv @1499
    _ZN11DataManager8Panorama24WorkflowParticipantsData4Role6setKeyERKSs @1500
    _ZN11DataManager8Panorama24WorkflowParticipantsData4Role7equalToEPN3bOS11Collections15CollectionEntryE @1501
    _ZN11DataManager8Panorama24WorkflowParticipantsData4Role7isValidEv @1502
    _ZN11DataManager8Panorama24WorkflowParticipantsData4Role8getUsersEv @1503
    _ZN11DataManager8Panorama24WorkflowParticipantsData4Role9setRecordERN3bOS3SQL15ResultSetRecordE @1504
    _ZN11DataManager8Panorama24WorkflowParticipantsData4RoleC1EPKc @1505
    _ZN11DataManager8Panorama24WorkflowParticipantsData4RoleC1EPN3bOS3XML7XMLNodeE @1506
    _ZN11DataManager8Panorama24WorkflowParticipantsData4RoleC1Ev @1507
    _ZN11DataManager8Panorama24WorkflowParticipantsData4RoleC2EPKc @1508
    _ZN11DataManager8Panorama24WorkflowParticipantsData4RoleC2EPN3bOS3XML7XMLNodeE @1509
    _ZN11DataManager8Panorama24WorkflowParticipantsData4RoleC2Ev @1510
    _ZN11DataManager8Panorama24WorkflowParticipantsData4RoleD0Ev @1511
    _ZN11DataManager8Panorama24WorkflowParticipantsData4RoleD1Ev @1512
    _ZN11DataManager8Panorama24WorkflowParticipantsData4RoleD2Ev @1513
    _ZN11DataManager8Panorama24WorkflowParticipantsData4User10acGetWhereEv @1514
    _ZN11DataManager8Panorama24WorkflowParticipantsData4User10getXMLNodeEj @1515
    _ZN11DataManager8Panorama24WorkflowParticipantsData4User11getPasswordEv @1516
    _ZN11DataManager8Panorama24WorkflowParticipantsData4User14acGetTableNameEv @1517
    _ZN11DataManager8Panorama24WorkflowParticipantsData4User21setAutoIncrementFieldEl @1518
    _ZN11DataManager8Panorama24WorkflowParticipantsData4User22haveAutoIncrementFieldEv @1519
    _ZN11DataManager8Panorama24WorkflowParticipantsData4User4initEPKc @1520
    _ZN11DataManager8Panorama24WorkflowParticipantsData4User4initEPN3bOS3XML7XMLNodeE @1521
    _ZN11DataManager8Panorama24WorkflowParticipantsData4User4initEv @1522
    _ZN11DataManager8Panorama24WorkflowParticipantsData4User5parseEPN3bOS3SQL14ResultSetFieldE @1523
    _ZN11DataManager8Panorama24WorkflowParticipantsData4User5parseEPN3bOS3SQL15ResultSetRecordE @1524
    _ZN11DataManager8Panorama24WorkflowParticipantsData4User5parseEPN3bOS3XML12XMLAttributeE @1525
    _ZN11DataManager8Panorama24WorkflowParticipantsData4User5parseEPN3bOS3XML7XMLNodeE @1526
    _ZN11DataManager8Panorama24WorkflowParticipantsData4User6getKeyEv @1527
    _ZN11DataManager8Panorama24WorkflowParticipantsData4User6setKeyERKSs @1528
    _ZN11DataManager8Panorama24WorkflowParticipantsData4User7equalToEPN3bOS11Collections15CollectionEntryE @1529
    _ZN11DataManager8Panorama24WorkflowParticipantsData4User7isValidEv @1530
    _ZN11DataManager8Panorama24WorkflowParticipantsData4User9setRecordERN3bOS3SQL15ResultSetRecordE @1531
    _ZN11DataManager8Panorama24WorkflowParticipantsData4UserC1EPKc @1532
    _ZN11DataManager8Panorama24WorkflowParticipantsData4UserC1EPN3bOS3XML7XMLNodeE @1533
    _ZN11DataManager8Panorama24WorkflowParticipantsData4UserC1Ev @1534
    _ZN11DataManager8Panorama24WorkflowParticipantsData4UserC2EPKc @1535
    _ZN11DataManager8Panorama24WorkflowParticipantsData4UserC2EPN3bOS3XML7XMLNodeE @1536
    _ZN11DataManager8Panorama24WorkflowParticipantsData4UserC2Ev @1537
    _ZN11DataManager8Panorama24WorkflowParticipantsData4UserD0Ev @1538
    _ZN11DataManager8Panorama24WorkflowParticipantsData4UserD1Ev @1539
    _ZN11DataManager8Panorama24WorkflowParticipantsData4UserD2Ev @1540
    _ZN11DataManager8Panorama24WorkflowParticipantsData5Roles10checkRolesEPS2_ @1541
    _ZN11DataManager8Panorama24WorkflowParticipantsData5Roles10deleteRoleEPKc @1542
    _ZN11DataManager8Panorama24WorkflowParticipantsData5Roles10getXMLNodeEj @1543
    _ZN11DataManager8Panorama24WorkflowParticipantsData5Roles10updateRoleEPKc @1544
    _ZN11DataManager8Panorama24WorkflowParticipantsData5Roles14getRolesByUserEPKcPS2_ @1545
    _ZN11DataManager8Panorama24WorkflowParticipantsData5Roles4initEN3bOS2IO4FileE @1546
    _ZN11DataManager8Panorama24WorkflowParticipantsData5Roles4initEPKc @1547
    _ZN11DataManager8Panorama24WorkflowParticipantsData5Roles4initEPN3bOS3XML7XMLNodeE @1548
    _ZN11DataManager8Panorama24WorkflowParticipantsData5Roles4initEv @1549
    _ZN11DataManager8Panorama24WorkflowParticipantsData5Roles5parseEPN3bOS3XML12XMLAttributeE @1550
    _ZN11DataManager8Panorama24WorkflowParticipantsData5Roles5parseEPN3bOS3XML7XMLNodeE @1551
    _ZN11DataManager8Panorama24WorkflowParticipantsData5Roles7addRoleEPKc @1552
    _ZN11DataManager8Panorama24WorkflowParticipantsData5Roles7getRoleEPNS1_4RoleE @1553
    _ZN11DataManager8Panorama24WorkflowParticipantsData5Roles7isValidEv @1554
    _ZN11DataManager8Panorama24WorkflowParticipantsData5Roles9checkRoleEPKc @1555
    _ZN11DataManager8Panorama24WorkflowParticipantsData5RolesC1EPN3bOS3XML7XMLNodeE @1556
    _ZN11DataManager8Panorama24WorkflowParticipantsData5RolesC1Ev @1557
    _ZN11DataManager8Panorama24WorkflowParticipantsData5RolesC2EPN3bOS3XML7XMLNodeE @1558
    _ZN11DataManager8Panorama24WorkflowParticipantsData5RolesC2Ev @1559
    _ZN11DataManager8Panorama24WorkflowParticipantsData5RolesD0Ev @1560
    _ZN11DataManager8Panorama24WorkflowParticipantsData5RolesD1Ev @1561
    _ZN11DataManager8Panorama24WorkflowParticipantsData5RolesD2Ev @1562
    _ZN11DataManager8Panorama24WorkflowParticipantsData5Users10deleteUserEPKc @1563
    _ZN11DataManager8Panorama24WorkflowParticipantsData5Users10getXMLNodeEj @1564
    _ZN11DataManager8Panorama24WorkflowParticipantsData5Users10updateUserEPKc @1565
    _ZN11DataManager8Panorama24WorkflowParticipantsData5Users4initEN3bOS2IO4FileE @1566
    _ZN11DataManager8Panorama24WorkflowParticipantsData5Users4initEPKc @1567
    _ZN11DataManager8Panorama24WorkflowParticipantsData5Users4initEPN3bOS3XML7XMLNodeE @1568
    _ZN11DataManager8Panorama24WorkflowParticipantsData5Users4initEv @1569
    _ZN11DataManager8Panorama24WorkflowParticipantsData5Users5parseEPN3bOS3XML12XMLAttributeE @1570
    _ZN11DataManager8Panorama24WorkflowParticipantsData5Users5parseEPN3bOS3XML7XMLNodeE @1571
    _ZN11DataManager8Panorama24WorkflowParticipantsData5Users7addUserEPKc @1572
    _ZN11DataManager8Panorama24WorkflowParticipantsData5Users7getUserEPNS1_4UserE @1573
    _ZN11DataManager8Panorama24WorkflowParticipantsData5Users7isValidEv @1574
    _ZN11DataManager8Panorama24WorkflowParticipantsData5Users9checkUserEPKc @1575
    _ZN11DataManager8Panorama24WorkflowParticipantsData5UsersC1EPN3bOS3XML7XMLNodeE @1576
    _ZN11DataManager8Panorama24WorkflowParticipantsData5UsersC1Ev @1577
    _ZN11DataManager8Panorama24WorkflowParticipantsData5UsersC2EPN3bOS3XML7XMLNodeE @1578
    _ZN11DataManager8Panorama24WorkflowParticipantsData5UsersC2Ev @1579
    _ZN11DataManager8Panorama24WorkflowParticipantsData5UsersD0Ev @1580
    _ZN11DataManager8Panorama24WorkflowParticipantsData5UsersD1Ev @1581
    _ZN11DataManager8Panorama24WorkflowParticipantsData5UsersD2Ev @1582
    _ZN11DataManager8Panorama24WorkflowParticipantsData7SQLRole10NAME_FIELDE @1583 DATA
    _ZN11DataManager8Panorama24WorkflowParticipantsData7SQLRole10TABLE_NAMEE @1584 DATA
    _ZN11DataManager8Panorama24WorkflowParticipantsData7SQLRole11USERS_FIELDE @1585 DATA
    _ZN11DataManager8Panorama24WorkflowParticipantsData7SQLRole17DESCRIPTION_FIELDE @1586 DATA
    _ZN11DataManager8Panorama24WorkflowParticipantsData7SQLRole9KEY_FIELDE @1587 DATA
    _ZN11DataManager8Panorama24WorkflowParticipantsData7SQLUser10NAME_FIELDE @1588 DATA
    _ZN11DataManager8Panorama24WorkflowParticipantsData7SQLUser10TABLE_NAMEE @1589 DATA
    _ZN11DataManager8Panorama24WorkflowParticipantsData7SQLUser11EMAIL_FIELDE @1590 DATA
    _ZN11DataManager8Panorama24WorkflowParticipantsData7SQLUser14PASSWORD_FIELDE @1591 DATA
    _ZN11DataManager8Panorama24WorkflowParticipantsData7SQLUser17DESCRIPTION_FIELDE @1592 DATA
    _ZN11DataManager8Panorama24WorkflowParticipantsData7SQLUser17DISPLAYNAME_FIELDE @1593 DATA
    _ZN11DataManager8Panorama24WorkflowParticipantsData7SQLUser9KEY_FIELDE @1594 DATA
    _ZN11DataManager8Panorama24WorkflowParticipantsData7XMLRole13KEY_ATTRIBUTEE @1595 DATA
    _ZN11DataManager8Panorama24WorkflowParticipantsData7XMLRole16DESCRIPTION_NODEE @1596 DATA
    _ZN11DataManager8Panorama24WorkflowParticipantsData7XMLRole9MAIN_NODEE @1597 DATA
    _ZN11DataManager8Panorama24WorkflowParticipantsData7XMLRole9NAME_NODEE @1598 DATA
    _ZN11DataManager8Panorama24WorkflowParticipantsData7XMLUser10EMAIL_NODEE @1599 DATA
    _ZN11DataManager8Panorama24WorkflowParticipantsData7XMLUser13KEY_ATTRIBUTEE @1600 DATA
    _ZN11DataManager8Panorama24WorkflowParticipantsData7XMLUser13PASSWORD_NODEE @1601 DATA
    _ZN11DataManager8Panorama24WorkflowParticipantsData7XMLUser16DESCRIPTION_NODEE @1602 DATA
    _ZN11DataManager8Panorama24WorkflowParticipantsData7XMLUser16DISPLAYNAME_NODEE @1603 DATA
    _ZN11DataManager8Panorama24WorkflowParticipantsData7XMLUser9MAIN_NODEE @1604 DATA
    _ZN11DataManager8Panorama24WorkflowParticipantsData7XMLUser9NAME_NODEE @1605 DATA
    _ZN11DataManager8Panorama24WorkflowParticipantsData8XMLRoles9MAIN_NODEE @1606 DATA
    _ZN11DataManager8Panorama24WorkflowParticipantsData8XMLUsers9MAIN_NODEE @1607 DATA
    _ZN11DataManager8Panorama6Common15FormalParameter10getXMLNodeEj @1608
    _ZN11DataManager8Panorama6Common15FormalParameter10setXMLTypeEv @1609
    _ZN11DataManager8Panorama6Common15FormalParameter11isMandatoryEv @1610
    _ZN11DataManager8Panorama6Common15FormalParameter12setMandatoryEv @1611
    _ZN11DataManager8Panorama6Common15FormalParameter14setNoMandatoryEv @1612
    _ZN11DataManager8Panorama6Common15FormalParameter4initEv @1613
    _ZN11DataManager8Panorama6Common15FormalParameter5parseEPN3bOS3XML12XMLAttributeE @1614
    _ZN11DataManager8Panorama6Common15FormalParameter5parseEPN3bOS3XML7XMLNodeE @1615
    _ZN11DataManager8Panorama6Common15FormalParameter7equalToEPN3bOS11Collections15CollectionEntryE @1616
    _ZN11DataManager8Panorama6Common15FormalParameter7getBindEv @1617
    _ZN11DataManager8Panorama6Common15FormalParameter7getNameEv @1618
    _ZN11DataManager8Panorama6Common15FormalParameter7getTypeEv @1619
    _ZN11DataManager8Panorama6Common15FormalParameter7isValidEv @1620
    _ZN11DataManager8Panorama6Common15FormalParameter7setNameERKSs @1621
    _ZN11DataManager8Panorama6Common15FormalParameter7setTypeERKSs @1622
    _ZN11DataManager8Panorama6Common15FormalParameter8getValueEv @1623
    _ZN11DataManager8Panorama6Common15FormalParameter8setValueERKSs @1624
    _ZN11DataManager8Panorama6Common15FormalParameterC1EPN3bOS3XML7XMLNodeE @1625
    _ZN11DataManager8Panorama6Common15FormalParameterC1ERKSsS4_ @1626
    _ZN11DataManager8Panorama6Common15FormalParameterC1Ev @1627
    _ZN11DataManager8Panorama6Common15FormalParameterC2EPN3bOS3XML7XMLNodeE @1628
    _ZN11DataManager8Panorama6Common15FormalParameterC2ERKSsS4_ @1629
    _ZN11DataManager8Panorama6Common15FormalParameterC2Ev @1630
    _ZN11DataManager8Panorama6Common15FormalParameterD0Ev @1631
    _ZN11DataManager8Panorama6Common15FormalParameterD1Ev @1632
    _ZN11DataManager8Panorama6Common15FormalParameterD2Ev @1633
    _ZN11DataManager8Panorama6Common16FormalParameters10getXMLNodeEj @1634
    _ZN11DataManager8Panorama6Common16FormalParameters12addParameterERNS1_15FormalParameterE @1635
    _ZN11DataManager8Panorama6Common16FormalParameters12addParameterERS2_ @1636
    _ZN11DataManager8Panorama6Common16FormalParameters3getEPKc @1637
    _ZN11DataManager8Panorama6Common16FormalParameters4initEPN3bOS3XML7XMLNodeE @1638
    _ZN11DataManager8Panorama6Common16FormalParameters4initEv @1639
    _ZN11DataManager8Panorama6Common16FormalParameters5parseEPN3bOS3XML12XMLAttributeE @1640
    _ZN11DataManager8Panorama6Common16FormalParameters5parseEPN3bOS3XML7XMLNodeE @1641
    _ZN11DataManager8Panorama6Common16FormalParameters7isValidEv @1642
    _ZN11DataManager8Panorama6Common16FormalParametersC1EPN3bOS3XML7XMLNodeE @1643
    _ZN11DataManager8Panorama6Common16FormalParametersC1Ev @1644
    _ZN11DataManager8Panorama6Common16FormalParametersC2EPN3bOS3XML7XMLNodeE @1645
    _ZN11DataManager8Panorama6Common16FormalParametersC2Ev @1646
    _ZN11DataManager8Panorama6Common16FormalParametersD0Ev @1647
    _ZN11DataManager8Panorama6Common16FormalParametersD1Ev @1648
    _ZN11DataManager8Panorama6Common16FormalParametersD2Ev @1649
    _ZN11DataManager8Panorama6Common17ExtendedAttribute10getXMLNodeEj @1650
    _ZN11DataManager8Panorama6Common17ExtendedAttribute4initEv @1651
    _ZN11DataManager8Panorama6Common17ExtendedAttribute5parseEPN3bOS3XML12XMLAttributeE @1652
    _ZN11DataManager8Panorama6Common17ExtendedAttribute5parseEPN3bOS3XML7XMLNodeE @1653
    _ZN11DataManager8Panorama6Common17ExtendedAttribute7equalToEPN3bOS11Collections15CollectionEntryE @1654
    _ZN11DataManager8Panorama6Common17ExtendedAttribute7getNameEv @1655
    _ZN11DataManager8Panorama6Common17ExtendedAttribute7isValidEv @1656
    _ZN11DataManager8Panorama6Common17ExtendedAttribute8getValueEv @1657
    _ZN11DataManager8Panorama6Common17ExtendedAttributeC1EPN3bOS3XML7XMLNodeE @1658
    _ZN11DataManager8Panorama6Common17ExtendedAttributeC1Ev @1659
    _ZN11DataManager8Panorama6Common17ExtendedAttributeC2EPN3bOS3XML7XMLNodeE @1660
    _ZN11DataManager8Panorama6Common17ExtendedAttributeC2Ev @1661
    _ZN11DataManager8Panorama6Common17ExtendedAttributeD0Ev @1662
    _ZN11DataManager8Panorama6Common17ExtendedAttributeD1Ev @1663
    _ZN11DataManager8Panorama6Common17ExtendedAttributeD2Ev @1664
    _ZN11DataManager8Panorama6Common18ExtendedAttributes10getXMLNodeEj @1665
    _ZN11DataManager8Panorama6Common18ExtendedAttributes3getERKSsS4_ @1666
    _ZN11DataManager8Panorama6Common18ExtendedAttributes5parseEPN3bOS3XML12XMLAttributeE @1667
    _ZN11DataManager8Panorama6Common18ExtendedAttributes5parseEPN3bOS3XML7XMLNodeE @1668
    _ZN11DataManager8Panorama6Common18ExtendedAttributes7isValidEv @1669
    _ZN11DataManager8Panorama6Common18ExtendedAttributesC1EPN3bOS3XML7XMLNodeE @1670
    _ZN11DataManager8Panorama6Common18ExtendedAttributesC1Ev @1671
    _ZN11DataManager8Panorama6Common18ExtendedAttributesC2EPN3bOS3XML7XMLNodeE @1672
    _ZN11DataManager8Panorama6Common18ExtendedAttributesC2Ev @1673
    _ZN11DataManager8Panorama6Common18ExtendedAttributesD0Ev @1674
    _ZN11DataManager8Panorama6Common18ExtendedAttributesD1Ev @1675
    _ZN11DataManager8Panorama6Common18ExtendedAttributesD2Ev @1676
    _ZN11DataManager8Panorama6Common18XMLFormalParameter10VALUE_NODEE @1677 DATA
    _ZN11DataManager8Panorama6Common18XMLFormalParameter11NUMBER_TYPEE @1678 DATA
    _ZN11DataManager8Panorama6Common18XMLFormalParameter11STRING_TYPEE @1679 DATA
    _ZN11DataManager8Panorama6Common18XMLFormalParameter14NAME_ATTRIBUTEE @1680 DATA
    _ZN11DataManager8Panorama6Common18XMLFormalParameter14TYPE_ATTRIBUTEE @1681 DATA
    _ZN11DataManager8Panorama6Common18XMLFormalParameter19MANDATORY_ATTRIBUTEE @1682 DATA
    _ZN11DataManager8Panorama6Common18XMLFormalParameter8XML_TYPEE @1683 DATA
    _ZN11DataManager8Panorama6Common18XMLFormalParameter9BIND_NODEE @1684 DATA
    _ZN11DataManager8Panorama6Common18XMLFormalParameter9MAIN_NODEE @1685 DATA
    _ZN11DataManager8Panorama6Common18XMLFormalParameter9NONE_TYPEE @1686 DATA
    _ZN11DataManager8Panorama6Common19XMLFormalParameters9MAIN_NODEE @1687 DATA
    _ZN11DataManager8Panorama6Common20XMLExtendedAttribute14NAME_ATTRIBUTEE @1688 DATA
    _ZN11DataManager8Panorama6Common20XMLExtendedAttribute15VALUE_ATTRIBUTEE @1689 DATA
    _ZN11DataManager8Panorama6Common20XMLExtendedAttribute9MAIN_NODEE @1690 DATA
    _ZN11DataManager8Panorama6Common21XMLExtendedAttributes9MAIN_NODEE @1691 DATA
    _ZN11DataManager8Panorama6Common5Grant10getXMLNodeEj @1692
    _ZN11DataManager8Panorama6Common5Grant4initEv @1693
    _ZN11DataManager8Panorama6Common5Grant5parseEPN3bOS3XML12XMLAttributeE @1694
    _ZN11DataManager8Panorama6Common5Grant5parseEPN3bOS3XML7XMLNodeE @1695
    _ZN11DataManager8Panorama6Common5Grant7equalToEPN3bOS11Collections15CollectionEntryE @1696
    _ZN11DataManager8Panorama6Common5Grant7getTypeEv @1697
    _ZN11DataManager8Panorama6Common5Grant7isValidEv @1698
    _ZN11DataManager8Panorama6Common5Grant8getRolesEv @1699
    _ZN11DataManager8Panorama6Common5Grant8getUsersEv @1700
    _ZN11DataManager8Panorama6Common5Grant9isEnabledEv @1701
    _ZN11DataManager8Panorama6Common5GrantC1EPN3bOS3XML7XMLNodeE @1702
    _ZN11DataManager8Panorama6Common5GrantC1Ev @1703
    _ZN11DataManager8Panorama6Common5GrantC2EPN3bOS3XML7XMLNodeE @1704
    _ZN11DataManager8Panorama6Common5GrantC2Ev @1705
    _ZN11DataManager8Panorama6Common5GrantD0Ev @1706
    _ZN11DataManager8Panorama6Common5GrantD1Ev @1707
    _ZN11DataManager8Panorama6Common5GrantD2Ev @1708
    _ZN11DataManager8Panorama6Common6Grants10getXMLNodeEj @1709
    _ZN11DataManager8Panorama6Common6Grants4initEPKc @1710
    _ZN11DataManager8Panorama6Common6Grants4initEPN3bOS3XML7XMLNodeE @1711
    _ZN11DataManager8Panorama6Common6Grants4initEv @1712
    _ZN11DataManager8Panorama6Common6Grants5checkEPKcS4_S4_ @1713
    _ZN11DataManager8Panorama6Common6Grants5parseEPN3bOS3XML12XMLAttributeE @1714
    _ZN11DataManager8Panorama6Common6Grants5parseEPN3bOS3XML7XMLNodeE @1715
    _ZN11DataManager8Panorama6Common6Grants7isValidEv @1716
    _ZN11DataManager8Panorama6Common6GrantsC1EPN3bOS3XML7XMLNodeE @1717
    _ZN11DataManager8Panorama6Common6GrantsC1Ev @1718
    _ZN11DataManager8Panorama6Common6GrantsC2EPN3bOS3XML7XMLNodeE @1719
    _ZN11DataManager8Panorama6Common6GrantsC2Ev @1720
    _ZN11DataManager8Panorama6Common6GrantsD0Ev @1721
    _ZN11DataManager8Panorama6Common6GrantsD1Ev @1722
    _ZN11DataManager8Panorama6Common6GrantsD2Ev @1723
    _ZN11DataManager8Panorama6Common8XMLGrant10NO_ENABLEDE @1724 DATA
    _ZN11DataManager8Panorama6Common8XMLGrant11YES_ENABLEDE @1725 DATA
    _ZN11DataManager8Panorama6Common8XMLGrant12VISIBLE_TYPEE @1726 DATA
    _ZN11DataManager8Panorama6Common8XMLGrant14EXECUTION_TYPEE @1727 DATA
    _ZN11DataManager8Panorama6Common8XMLGrant14TYPE_ATTRIBUTEE @1728 DATA
    _ZN11DataManager8Panorama6Common8XMLGrant17ENABLED_ATTRIBUTEE @1729 DATA
    _ZN11DataManager8Panorama6Common8XMLGrant9MAIN_NODEE @1730 DATA
    _ZN11DataManager8Panorama6Common9XMLGrants9MAIN_NODEE @1731 DATA
    _ZN11DataManager8Panorama8DataBase10Connection10getXMLNodeEj @1732
    _ZN11DataManager8Panorama8DataBase10Connection11manageFormsEv @1733
    _ZN11DataManager8Panorama8DataBase10Connection11manageRolesEv @1734
    _ZN11DataManager8Panorama8DataBase10Connection11manageUsersEv @1735
    _ZN11DataManager8Panorama8DataBase10Connection12manageEventsEv @1736
    _ZN11DataManager8Panorama8DataBase10Connection13getFormsValueEv @1737
    _ZN11DataManager8Panorama8DataBase10Connection13getRolesValueEv @1738
    _ZN11DataManager8Panorama8DataBase10Connection13getUsersValueEv @1739
    _ZN11DataManager8Panorama8DataBase10Connection13manageReportsEv @1740
    _ZN11DataManager8Panorama8DataBase10Connection14getEventsValueEv @1741
    _ZN11DataManager8Panorama8DataBase10Connection14getObjectValueESs @1742
    _ZN11DataManager8Panorama8DataBase10Connection14manageServicesEv @1743
    _ZN11DataManager8Panorama8DataBase10Connection15manageCheckListEv @1744
    _ZN11DataManager8Panorama8DataBase10Connection15manageDataTypesEv @1745
    _ZN11DataManager8Panorama8DataBase10Connection16getServicesValueEv @1746
    _ZN11DataManager8Panorama8DataBase10Connection17getCheckListValueEv @1747
    _ZN11DataManager8Panorama8DataBase10Connection17getDataTypesValueEv @1748
    _ZN11DataManager8Panorama8DataBase10Connection18manageApplicationsEv @1749
    _ZN11DataManager8Panorama8DataBase10Connection19manageWaitingEventsEv @1750
    _ZN11DataManager8Panorama8DataBase10Connection20getApplicationsValueEv @1751
    _ZN11DataManager8Panorama8DataBase10Connection20manageOccurredEventsEv @1752
    _ZN11DataManager8Panorama8DataBase10Connection21getWaitingEventsValueEv @1753
    _ZN11DataManager8Panorama8DataBase10Connection22getOccurredEventsValueEv @1754
    _ZN11DataManager8Panorama8DataBase10Connection22manageProcessInstancesEv @1755
    _ZN11DataManager8Panorama8DataBase10Connection22manageProcessTemplatesEv @1756
    _ZN11DataManager8Panorama8DataBase10Connection24getProcessInstancesValueEv @1757
    _ZN11DataManager8Panorama8DataBase10Connection24getProcessTemplatesValueEv @1758
    _ZN11DataManager8Panorama8DataBase10Connection26manageApplicationsDataBaseEv @1759
    _ZN11DataManager8Panorama8DataBase10Connection4initEPN3bOS3XML7XMLNodeE @1760
    _ZN11DataManager8Panorama8DataBase10Connection4initEv @1761
    _ZN11DataManager8Panorama8DataBase10Connection5getIdEv @1762
    _ZN11DataManager8Panorama8DataBase10Connection5parseEPN3bOS3XML12XMLAttributeE @1763
    _ZN11DataManager8Panorama8DataBase10Connection5parseEPN3bOS3XML7XMLNodeE @1764
    _ZN11DataManager8Panorama8DataBase10Connection6manageESs @1765
    _ZN11DataManager8Panorama8DataBase10Connection7equalToEPN3bOS11Collections15CollectionEntryE @1766
    _ZN11DataManager8Panorama8DataBase10Connection7getPoolEv @1767
    _ZN11DataManager8Panorama8DataBase10Connection7isValidEv @1768
    _ZN11DataManager8Panorama8DataBase10Connection9getIdTypeEv @1769
    _ZN11DataManager8Panorama8DataBase10Connection9getObjectESs @1770
    _ZN11DataManager8Panorama8DataBase10Connection9isPrimaryEv @1771
    _ZN11DataManager8Panorama8DataBase10ConnectionC1EPN3bOS3XML7XMLNodeE @1772
    _ZN11DataManager8Panorama8DataBase10ConnectionC1Ev @1773
    _ZN11DataManager8Panorama8DataBase10ConnectionC2EPN3bOS3XML7XMLNodeE @1774
    _ZN11DataManager8Panorama8DataBase10ConnectionC2Ev @1775
    _ZN11DataManager8Panorama8DataBase10ConnectionD0Ev @1776
    _ZN11DataManager8Panorama8DataBase10ConnectionD1Ev @1777
    _ZN11DataManager8Panorama8DataBase10ConnectionD2Ev @1778
    _ZN11DataManager8Panorama8DataBase11Connections10getPrimaryEv @1779
    _ZN11DataManager8Panorama8DataBase11Connections10getXMLNodeEj @1780
    _ZN11DataManager8Panorama8DataBase11Connections4initEPN3bOS3XML7XMLNodeE @1781
    _ZN11DataManager8Panorama8DataBase11Connections4initEv @1782
    _ZN11DataManager8Panorama8DataBase11Connections5parseEPN3bOS3XML12XMLAttributeE @1783
    _ZN11DataManager8Panorama8DataBase11Connections5parseEPN3bOS3XML7XMLNodeE @1784
    _ZN11DataManager8Panorama8DataBase11Connections7isValidEv @1785
    _ZN11DataManager8Panorama8DataBase11ConnectionsC1EPN3bOS3XML7XMLNodeE @1786
    _ZN11DataManager8Panorama8DataBase11ConnectionsC1Ev @1787
    _ZN11DataManager8Panorama8DataBase11ConnectionsC2EPN3bOS3XML7XMLNodeE @1788
    _ZN11DataManager8Panorama8DataBase11ConnectionsC2Ev @1789
    _ZN11DataManager8Panorama8DataBase11ConnectionsD0Ev @1790
    _ZN11DataManager8Panorama8DataBase11ConnectionsD1Ev @1791
    _ZN11DataManager8Panorama8DataBase11ConnectionsD2Ev @1792
    _ZN11DataManager8Panorama8DataBase11PoolManager10getXMLNodeEj @1793
    _ZN11DataManager8Panorama8DataBase11PoolManager4initEPN3bOS3XML7XMLNodeE @1794
    _ZN11DataManager8Panorama8DataBase11PoolManager4initEv @1795
    _ZN11DataManager8Panorama8DataBase11PoolManager5parseEPN3bOS3XML12XMLAttributeE @1796
    _ZN11DataManager8Panorama8DataBase11PoolManager5parseEPN3bOS3XML7XMLNodeE @1797
    _ZN11DataManager8Panorama8DataBase11PoolManager6getMaxEv @1798
    _ZN11DataManager8Panorama8DataBase11PoolManager6getMinEv @1799
    _ZN11DataManager8Panorama8DataBase11PoolManager7isValidEv @1800
    _ZN11DataManager8Panorama8DataBase11PoolManager8getDelayEv @1801
    _ZN11DataManager8Panorama8DataBase11PoolManager8getRetryEv @1802
    _ZN11DataManager8Panorama8DataBase11PoolManagerC1EPN3bOS3XML7XMLNodeE @1803
    _ZN11DataManager8Panorama8DataBase11PoolManagerC1ERKS2_ @1804
    _ZN11DataManager8Panorama8DataBase11PoolManagerC1Ev @1805
    _ZN11DataManager8Panorama8DataBase11PoolManagerC2EPN3bOS3XML7XMLNodeE @1806
    _ZN11DataManager8Panorama8DataBase11PoolManagerC2Ev @1807
    _ZN11DataManager8Panorama8DataBase11PoolManagerD0Ev @1808
    _ZN11DataManager8Panorama8DataBase11PoolManagerD1Ev @1809
    _ZN11DataManager8Panorama8DataBase11PoolManagerD2Ev @1810
    _ZN11DataManager8Panorama8DataBase11XMLDataBase9MAIN_NODEE @1811 DATA
    _ZN11DataManager8Panorama8DataBase13XMLConnection12ID_ATTRIBUTEE @1812 DATA
    _ZN11DataManager8Panorama8DataBase13XMLConnection12PRIMARY_TYPEE @1813 DATA
    _ZN11DataManager8Panorama8DataBase13XMLConnection14TYPE_ATTRIBUTEE @1814 DATA
    _ZN11DataManager8Panorama8DataBase14DataBaseObject10getXMLNodeEj @1815
    _ZN11DataManager8Panorama8DataBase14DataBaseObject16isFileRepositoryEv @1816
    _ZN11DataManager8Panorama8DataBase14DataBaseObject4initEPN3bOS3XML7XMLNodeE @1817
    _ZN11DataManager8Panorama8DataBase14DataBaseObject4initEv @1818
    _ZN11DataManager8Panorama8DataBase14DataBaseObject5parseEPN3bOS3XML12XMLAttributeE @1819
    _ZN11DataManager8Panorama8DataBase14DataBaseObject5parseEPN3bOS3XML7XMLNodeE @1820
    _ZN11DataManager8Panorama8DataBase14DataBaseObject7equalToEPN3bOS11Collections15CollectionEntryE @1821
    _ZN11DataManager8Panorama8DataBase14DataBaseObject7getTypeEv @1822
    _ZN11DataManager8Panorama8DataBase14DataBaseObject7isValidEv @1823
    _ZN11DataManager8Panorama8DataBase14DataBaseObject7setTypeERKSs @1824
    _ZN11DataManager8Panorama8DataBase14DataBaseObject8getValueEv @1825
    _ZN11DataManager8Panorama8DataBase14DataBaseObject9isManagedEv @1826
    _ZN11DataManager8Panorama8DataBase14DataBaseObjectC1EPN3bOS3XML7XMLNodeE @1827
    _ZN11DataManager8Panorama8DataBase14DataBaseObjectC1Ev @1828
    _ZN11DataManager8Panorama8DataBase14DataBaseObjectC2EPN3bOS3XML7XMLNodeE @1829
    _ZN11DataManager8Panorama8DataBase14DataBaseObjectC2Ev @1830
    _ZN11DataManager8Panorama8DataBase14DataBaseObjectD0Ev @1831
    _ZN11DataManager8Panorama8DataBase14DataBaseObjectD1Ev @1832
    _ZN11DataManager8Panorama8DataBase14DataBaseObjectD2Ev @1833
    _ZN11DataManager8Panorama8DataBase14ODBCConnection10getXMLNodeEj @1834
    _ZN11DataManager8Panorama8DataBase14ODBCConnection4initEv @1835
    _ZN11DataManager8Panorama8DataBase14ODBCConnection5parseEPN3bOS3XML12XMLAttributeE @1836
    _ZN11DataManager8Panorama8DataBase14ODBCConnection5parseEPN3bOS3XML7XMLNodeE @1837
    _ZN11DataManager8Panorama8DataBase14ODBCConnection7isValidEv @1838
    _ZN11DataManager8Panorama8DataBase14ODBCConnectionC1EPN3bOS3XML7XMLNodeE @1839
    _ZN11DataManager8Panorama8DataBase14ODBCConnectionC1Ev @1840
    _ZN11DataManager8Panorama8DataBase14ODBCConnectionC2EPN3bOS3XML7XMLNodeE @1841
    _ZN11DataManager8Panorama8DataBase14ODBCConnectionC2Ev @1842
    _ZN11DataManager8Panorama8DataBase14ODBCConnectionD0Ev @1843
    _ZN11DataManager8Panorama8DataBase14ODBCConnectionD1Ev @1844
    _ZN11DataManager8Panorama8DataBase14ODBCConnectionD2Ev @1845
    _ZN11DataManager8Panorama8DataBase14XMLConnections9MAIN_NODEE @1846 DATA
    _ZN11DataManager8Panorama8DataBase14XMLPoolManager10DELAY_NODEE @1847 DATA
    _ZN11DataManager8Panorama8DataBase14XMLPoolManager10RETRY_NODEE @1848 DATA
    _ZN11DataManager8Panorama8DataBase14XMLPoolManager13MAX_ATTRIBUTEE @1849 DATA
    _ZN11DataManager8Panorama8DataBase14XMLPoolManager13MIN_ATTRIBUTEE @1850 DATA
    _ZN11DataManager8Panorama8DataBase14XMLPoolManager9MAIN_NODEE @1851 DATA
    _ZN11DataManager8Panorama8DataBase15mySQLConnection10getXMLNodeEj @1852
    _ZN11DataManager8Panorama8DataBase15mySQLConnection11getDataBaseEv @1853
    _ZN11DataManager8Panorama8DataBase15mySQLConnection11getPasswordEv @1854
    _ZN11DataManager8Panorama8DataBase15mySQLConnection4initEv @1855
    _ZN11DataManager8Panorama8DataBase15mySQLConnection5parseEPN3bOS3XML12XMLAttributeE @1856
    _ZN11DataManager8Panorama8DataBase15mySQLConnection5parseEPN3bOS3XML7XMLNodeE @1857
    _ZN11DataManager8Panorama8DataBase15mySQLConnection7getHostEv @1858
    _ZN11DataManager8Panorama8DataBase15mySQLConnection7getPortEv @1859
    _ZN11DataManager8Panorama8DataBase15mySQLConnection7getUserEv @1860
    _ZN11DataManager8Panorama8DataBase15mySQLConnection7isValidEv @1861
    _ZN11DataManager8Panorama8DataBase15mySQLConnectionC1EPN3bOS3XML7XMLNodeE @1862
    _ZN11DataManager8Panorama8DataBase15mySQLConnectionC1Ev @1863
    _ZN11DataManager8Panorama8DataBase15mySQLConnectionC2EPN3bOS3XML7XMLNodeE @1864
    _ZN11DataManager8Panorama8DataBase15mySQLConnectionC2Ev @1865
    _ZN11DataManager8Panorama8DataBase15mySQLConnectionD0Ev @1866
    _ZN11DataManager8Panorama8DataBase15mySQLConnectionD1Ev @1867
    _ZN11DataManager8Panorama8DataBase15mySQLConnectionD2Ev @1868
    _ZN11DataManager8Panorama8DataBase16SQLiteConnection10getXMLNodeEj @1869
    _ZN11DataManager8Panorama8DataBase16SQLiteConnection4initEv @1870
    _ZN11DataManager8Panorama8DataBase16SQLiteConnection5parseEPN3bOS3XML12XMLAttributeE @1871
    _ZN11DataManager8Panorama8DataBase16SQLiteConnection5parseEPN3bOS3XML7XMLNodeE @1872
    _ZN11DataManager8Panorama8DataBase16SQLiteConnection7isValidEv @1873
    _ZN11DataManager8Panorama8DataBase16SQLiteConnectionC1EPN3bOS3XML7XMLNodeE @1874
    _ZN11DataManager8Panorama8DataBase16SQLiteConnectionC1Ev @1875
    _ZN11DataManager8Panorama8DataBase16SQLiteConnectionC2EPN3bOS3XML7XMLNodeE @1876
    _ZN11DataManager8Panorama8DataBase16SQLiteConnectionC2Ev @1877
    _ZN11DataManager8Panorama8DataBase16SQLiteConnectionD0Ev @1878
    _ZN11DataManager8Panorama8DataBase16SQLiteConnectionD1Ev @1879
    _ZN11DataManager8Panorama8DataBase16SQLiteConnectionD2Ev @1880
    _ZN11DataManager8Panorama8DataBase17XMLDataBaseObject10FORMS_TYPEE @1881 DATA
    _ZN11DataManager8Panorama8DataBase17XMLDataBaseObject10NO_MANAGEDE @1882 DATA
    _ZN11DataManager8Panorama8DataBase17XMLDataBaseObject10ROLES_TYPEE @1883 DATA
    _ZN11DataManager8Panorama8DataBase17XMLDataBaseObject10USERS_TYPEE @1884 DATA
    _ZN11DataManager8Panorama8DataBase17XMLDataBaseObject11EVENTS_TYPEE @1885 DATA
    _ZN11DataManager8Panorama8DataBase17XMLDataBaseObject11YES_MANAGEDE @1886 DATA
    _ZN11DataManager8Panorama8DataBase17XMLDataBaseObject12REPORTS_TYPEE @1887 DATA
    _ZN11DataManager8Panorama8DataBase17XMLDataBaseObject13SERVICES_TYPEE @1888 DATA
    _ZN11DataManager8Panorama8DataBase17XMLDataBaseObject14CHECKLIST_TYPEE @1889 DATA
    _ZN11DataManager8Panorama8DataBase17XMLDataBaseObject14DATATYPES_TYPEE @1890 DATA
    _ZN11DataManager8Panorama8DataBase17XMLDataBaseObject14TYPE_ATTRIBUTEE @1891 DATA
    _ZN11DataManager8Panorama8DataBase17XMLDataBaseObject15FILE_REPOSITORYE @1892 DATA
    _ZN11DataManager8Panorama8DataBase17XMLDataBaseObject17APPLICATIONS_TYPEE @1893 DATA
    _ZN11DataManager8Panorama8DataBase17XMLDataBaseObject17FOLDER_REPOSITORYE @1894 DATA
    _ZN11DataManager8Panorama8DataBase17XMLDataBaseObject17MANAGED_ATTRIBUTEE @1895 DATA
    _ZN11DataManager8Panorama8DataBase17XMLDataBaseObject18WAITINGEVENTS_TYPEE @1896 DATA
    _ZN11DataManager8Panorama8DataBase17XMLDataBaseObject19OCCURREDEVENTS_TYPEE @1897 DATA
    _ZN11DataManager8Panorama8DataBase17XMLDataBaseObject20REPOSITORY_ATTRIBUTEE @1898 DATA
    _ZN11DataManager8Panorama8DataBase17XMLDataBaseObject22PROCESSESINSTANCE_TYPEE @1899 DATA
    _ZN11DataManager8Panorama8DataBase17XMLDataBaseObject22PROCESSESTEMPLATE_TYPEE @1900 DATA
    _ZN11DataManager8Panorama8DataBase17XMLDataBaseObject26APPLICATIONS_DATABASE_TYPEE @1901 DATA
    _ZN11DataManager8Panorama8DataBase17XMLDataBaseObject9MAIN_NODEE @1902 DATA
    _ZN11DataManager8Panorama8DataBase17XMLODBCConnection13PASSWORD_NODEE @1903 DATA
    _ZN11DataManager8Panorama8DataBase17XMLODBCConnection8DSN_NODEE @1904 DATA
    _ZN11DataManager8Panorama8DataBase17XMLODBCConnection9MAIN_NODEE @1905 DATA
    _ZN11DataManager8Panorama8DataBase17XMLODBCConnection9USER_NODEE @1906 DATA
    _ZN11DataManager8Panorama8DataBase18XMLmySQLConnection13DATABASE_NODEE @1907 DATA
    _ZN11DataManager8Panorama8DataBase18XMLmySQLConnection13PASSWORD_NODEE @1908 DATA
    _ZN11DataManager8Panorama8DataBase18XMLmySQLConnection9HOST_NODEE @1909 DATA
    _ZN11DataManager8Panorama8DataBase18XMLmySQLConnection9MAIN_NODEE @1910 DATA
    _ZN11DataManager8Panorama8DataBase18XMLmySQLConnection9PORT_NODEE @1911 DATA
    _ZN11DataManager8Panorama8DataBase18XMLmySQLConnection9USER_NODEE @1912 DATA
    _ZN11DataManager8Panorama8DataBase19XMLSQLiteConnection13DATABASE_NODEE @1913 DATA
    _ZN11DataManager8Panorama8DataBase19XMLSQLiteConnection9MAIN_NODEE @1914 DATA
    _ZN11DataManager8Panorama8DataBase19XMLSQLiteConnection9PATH_NODEE @1915 DATA
    _ZN11DataManager8Panorama8DataBase20FileSystemConnection10getXMLNodeEj @1916
    _ZN11DataManager8Panorama8DataBase20FileSystemConnection12getRolesFileEv @1917
    _ZN11DataManager8Panorama8DataBase20FileSystemConnection12getUsersFileEv @1918
    _ZN11DataManager8Panorama8DataBase20FileSystemConnection14getFormsFolderEv @1919
    _ZN11DataManager8Panorama8DataBase20FileSystemConnection15getServicesFileEv @1920
    _ZN11DataManager8Panorama8DataBase20FileSystemConnection17getResultTypeFileEv @1921
    _ZN11DataManager8Panorama8DataBase20FileSystemConnection18getCheckListFolderEv @1922
    _ZN11DataManager8Panorama8DataBase20FileSystemConnection19getApplicationsFileEv @1923
    _ZN11DataManager8Panorama8DataBase20FileSystemConnection25getProcessInstancesFolderEv @1924
    _ZN11DataManager8Panorama8DataBase20FileSystemConnection25getProcessTemplatesFolderEv @1925
    _ZN11DataManager8Panorama8DataBase20FileSystemConnection4initEPN3bOS3XML7XMLNodeE @1926
    _ZN11DataManager8Panorama8DataBase20FileSystemConnection4initEv @1927
    _ZN11DataManager8Panorama8DataBase20FileSystemConnection5parseEPN3bOS3XML12XMLAttributeE @1928
    _ZN11DataManager8Panorama8DataBase20FileSystemConnection5parseEPN3bOS3XML7XMLNodeE @1929
    _ZN11DataManager8Panorama8DataBase20FileSystemConnection7isValidEv @1930
    _ZN11DataManager8Panorama8DataBase20FileSystemConnectionC1EPN3bOS3XML7XMLNodeE @1931
    _ZN11DataManager8Panorama8DataBase20FileSystemConnectionC1Ev @1932
    _ZN11DataManager8Panorama8DataBase20FileSystemConnectionC2EPN3bOS3XML7XMLNodeE @1933
    _ZN11DataManager8Panorama8DataBase20FileSystemConnectionC2Ev @1934
    _ZN11DataManager8Panorama8DataBase20FileSystemConnectionD0Ev @1935
    _ZN11DataManager8Panorama8DataBase20FileSystemConnectionD1Ev @1936
    _ZN11DataManager8Panorama8DataBase20FileSystemConnectionD2Ev @1937
    _ZN11DataManager8Panorama8DataBase21DataBaseObjectManager10getXMLNodeEj @1938
    _ZN11DataManager8Panorama8DataBase21DataBaseObjectManager4initEPN3bOS3XML7XMLNodeE @1939
    _ZN11DataManager8Panorama8DataBase21DataBaseObjectManager4initEv @1940
    _ZN11DataManager8Panorama8DataBase21DataBaseObjectManager5parseEPN3bOS3XML12XMLAttributeE @1941
    _ZN11DataManager8Panorama8DataBase21DataBaseObjectManager5parseEPN3bOS3XML7XMLNodeE @1942
    _ZN11DataManager8Panorama8DataBase21DataBaseObjectManager7isValidEv @1943
    _ZN11DataManager8Panorama8DataBase21DataBaseObjectManagerC1EPN3bOS3XML7XMLNodeE @1944
    _ZN11DataManager8Panorama8DataBase21DataBaseObjectManagerC1Ev @1945
    _ZN11DataManager8Panorama8DataBase21DataBaseObjectManagerC2EPN3bOS3XML7XMLNodeE @1946
    _ZN11DataManager8Panorama8DataBase21DataBaseObjectManagerC2Ev @1947
    _ZN11DataManager8Panorama8DataBase21DataBaseObjectManagerD0Ev @1948
    _ZN11DataManager8Panorama8DataBase21DataBaseObjectManagerD1Ev @1949
    _ZN11DataManager8Panorama8DataBase21DataBaseObjectManagerD2Ev @1950
    _ZN11DataManager8Panorama8DataBase23XMLFileSystemConnection9MAIN_NODEE @1951 DATA
    _ZN11DataManager8Panorama8DataBase24XMLDataBaseObjectManager9MAIN_NODEE @1952 DATA
    _ZN11DataManager8Panorama8DataBase8DataBase10getXMLNodeEj @1953
    _ZN11DataManager8Panorama8DataBase8DataBase14getConnectionsEv @1954
    _ZN11DataManager8Panorama8DataBase8DataBase4initEv @1955
    _ZN11DataManager8Panorama8DataBase8DataBase5parseEPN3bOS3XML12XMLAttributeE @1956
    _ZN11DataManager8Panorama8DataBase8DataBase5parseEPN3bOS3XML7XMLNodeE @1957
    _ZN11DataManager8Panorama8DataBase8DataBase7isValidEv @1958
    _ZN11DataManager8Panorama8DataBase8DataBaseC1Ev @1959
    _ZN11DataManager8Panorama8DataBase8DataBaseC2Ev @1960
    _ZN11DataManager8Panorama8DataBase8DataBaseD0Ev @1961
    _ZN11DataManager8Panorama8DataBase8DataBaseD1Ev @1962
    _ZN11DataManager8Panorama8DataBase8DataBaseD2Ev @1963
    _ZN14WorkflowEngine13EventsManager10deinstanceEv @1964
    _ZN14WorkflowEngine13EventsManager16setEvent2ManagedEPN11DataManager8Panorama14WorkflowEvents13OccurredEventE @1965
    _ZN14WorkflowEngine13EventsManager17getAnEvent2ManageERSt6vectorINS_14WorkflowActionESaIS2_EE @1966
    _ZN14WorkflowEngine13EventsManager18addEventbyActivityEPN11DataManager8Panorama14WorkflowEvents5EventEPNS2_17WorkflowProcesses8ActivityE @1967
    _ZN14WorkflowEngine13EventsManager18addWaitingActivityEPN11DataManager8Panorama17WorkflowProcesses8ActivityEPNS2_14WorkflowEvents5EventE @1968
    _ZN14WorkflowEngine13EventsManager8instanceEv @1969
    _ZN14WorkflowEngine13EventsManager9_instanceE @1970 DATA
    _ZN14WorkflowEngine13EventsManagerC1Ev @1971
    _ZN14WorkflowEngine13EventsManagerC2Ev @1972
    _ZN14WorkflowEngine13EventsManagerD1Ev @1973
    _ZN14WorkflowEngine13EventsManagerD2Ev @1974
    _ZN14WorkflowEngine14WorkflowAction12getProcessIdEv @1975
    _ZN14WorkflowEngine14WorkflowAction15getActivityNameEv @1976
    _ZN14WorkflowEngine14WorkflowAction15getWorkflowNameEv @1977
    _ZN14WorkflowEngine14WorkflowActionC1EPKcSs @1978
    _ZN14WorkflowEngine14WorkflowActionC1ERKS0_ @1979
    _ZN14WorkflowEngine14WorkflowActionC1ESs @1980
    _ZN14WorkflowEngine14WorkflowActionC2EPKcSs @1981
    _ZN14WorkflowEngine14WorkflowActionC2ESs @1982
    _ZN14WorkflowEngine14WorkflowActionD1Ev @1983
    _ZN14WorkflowEngine14WorkflowActionD2Ev @1984
    _ZN14WorkflowEngine16ChannelExceptionC1ERKS0_ @1985
    _ZN14WorkflowEngine16ChannelExceptionC1ERKSs @1986
    _ZN14WorkflowEngine16ChannelExceptionD0Ev @1987
    _ZN14WorkflowEngine16ChannelExceptionD1Ev @1988
    _ZN14WorkflowEngine17FunctionExecutionC1EPN11DataManager8Panorama24WorkflowApplicationsData11ApplicationEPNS3_19ApplicationFunctionE @1989
    _ZN14WorkflowEngine17FunctionExecutionC1EPN11DataManager8Panorama24WorkflowApplicationsData19ApplicationFunctionE @1990
    _ZN14WorkflowEngine17FunctionExecutionC2EPN11DataManager8Panorama24WorkflowApplicationsData11ApplicationEPNS3_19ApplicationFunctionE @1991
    _ZN14WorkflowEngine17FunctionExecutionC2EPN11DataManager8Panorama24WorkflowApplicationsData19ApplicationFunctionE @1992
    _ZN14WorkflowEngine17FunctionExecutionD0Ev @1993
    _ZN14WorkflowEngine17FunctionExecutionD1Ev @1994
    _ZN14WorkflowEngine17FunctionExecutionD2Ev @1995
    _ZN14WorkflowEngine18ApplicationManager10deinstanceEv @1996
    _ZN14WorkflowEngine18ApplicationManager7executeERN11DataManager8Panorama24WorkflowApplicationsData19ApplicationFunctionE @1997
    _ZN14WorkflowEngine18ApplicationManager8instanceEv @1998
    _ZN14WorkflowEngine18ApplicationManager9_instanceE @1999 DATA
    _ZN14WorkflowEngine18ApplicationManagerC1Ev @2000
    _ZN14WorkflowEngine18ApplicationManagerC2Ev @2001
    _ZN14WorkflowEngine18ApplicationManagerD1Ev @2002
    _ZN14WorkflowEngine18ApplicationManagerD2Ev @2003
    _ZN14WorkflowEngine20ApplicationExceptionC1ERKSs @2004
    _ZN14WorkflowEngine20ApplicationExceptionD0Ev @2005
    _ZN14WorkflowEngine20ApplicationExceptionD1Ev @2006
    _ZN14WorkflowEngine23DynamicLibraryExceptionC1ERKS0_ @2007
    _ZN14WorkflowEngine23DynamicLibraryExceptionC1ERKSs @2008
    _ZN14WorkflowEngine23DynamicLibraryExceptionD0Ev @2009
    _ZN14WorkflowEngine23DynamicLibraryExceptionD1Ev @2010
    _ZN14WorkflowEngine23ScriptFunctionExecution3runEv @2011
    _ZN14WorkflowEngine23ScriptFunctionExecution7replaceERKSsS2_S2_ @2012
    _ZN14WorkflowEngine23ScriptFunctionExecutionC1EPN11DataManager8Panorama24WorkflowApplicationsData19ApplicationFunctionES5_ @2013
    _ZN14WorkflowEngine23ScriptFunctionExecutionC2EPN11DataManager8Panorama24WorkflowApplicationsData19ApplicationFunctionES5_ @2014
    _ZN14WorkflowEngine23ScriptFunctionExecutionD0Ev @2015
    _ZN14WorkflowEngine23ScriptFunctionExecutionD1Ev @2016
    _ZN14WorkflowEngine23ScriptFunctionExecutionD2Ev @2017
    _ZN14WorkflowEngine23SocketFunctionExecution3runEv @2018
    _ZN14WorkflowEngine23SocketFunctionExecutionC1EPN11DataManager8Panorama24WorkflowApplicationsData11ApplicationEPNS3_19ApplicationFunctionE @2019
    _ZN14WorkflowEngine23SocketFunctionExecutionC2EPN11DataManager8Panorama24WorkflowApplicationsData11ApplicationEPNS3_19ApplicationFunctionE @2020
    _ZN14WorkflowEngine23SocketFunctionExecutionD0Ev @2021
    _ZN14WorkflowEngine23SocketFunctionExecutionD1Ev @2022
    _ZN14WorkflowEngine23SocketFunctionExecutionD2Ev @2023
    _ZN14WorkflowEngine24LibraryFunctionExecution3runEv @2024
    _ZN14WorkflowEngine24LibraryFunctionExecutionC1EPN11DataManager8Panorama24WorkflowApplicationsData11ApplicationEPNS3_19ApplicationFunctionE @2025
    _ZN14WorkflowEngine24LibraryFunctionExecutionC2EPN11DataManager8Panorama24WorkflowApplicationsData11ApplicationEPNS3_19ApplicationFunctionE @2026
    _ZN14WorkflowEngine24LibraryFunctionExecutionD0Ev @2027
    _ZN14WorkflowEngine24LibraryFunctionExecutionD1Ev @2028
    _ZN14WorkflowEngine24LibraryFunctionExecutionD2Ev @2029
    _ZN14WorkflowEngine24ProcessFunctionExecution3runEv @2030
    _ZN14WorkflowEngine24ProcessFunctionExecutionC1EPN11DataManager8Panorama24WorkflowApplicationsData11ApplicationEPNS3_19ApplicationFunctionE @2031
    _ZN14WorkflowEngine24ProcessFunctionExecutionC2EPN11DataManager8Panorama24WorkflowApplicationsData11ApplicationEPNS3_19ApplicationFunctionE @2032
    _ZN14WorkflowEngine24ProcessFunctionExecutionD0Ev @2033
    _ZN14WorkflowEngine24ProcessFunctionExecutionD1Ev @2034
    _ZN14WorkflowEngine24ProcessFunctionExecutionD2Ev @2035
    _ZN14WorkflowEngine25ProcessExecutionExceptionC1ERKS0_ @2036
    _ZN14WorkflowEngine25ProcessExecutionExceptionD0Ev @2037
    _ZN14WorkflowEngine25ProcessExecutionExceptionD1Ev @2038
    _ZN14WorkflowEngine6Idioma10Expression12getStatementEv @2039
    _ZN14WorkflowEngine6Idioma10Expression13DELIMITER_ENDE @2040 DATA
    _ZN14WorkflowEngine6Idioma10Expression15DELIMITER_BEGINE @2041 DATA
    _ZN14WorkflowEngine6Idioma10Expression15assignParameterESs @2042
    _ZN14WorkflowEngine6Idioma10Expression18getResultAttributeEv @2043
    _ZN14WorkflowEngine6Idioma10Expression19DELIMITER_PARAM_ENDE @2044 DATA
    _ZN14WorkflowEngine6Idioma10Expression20DELIMITER_RESULT_ENDE @2045 DATA
    _ZN14WorkflowEngine6Idioma10Expression20setRetrieveParameterEPNS0_17RetrieveParameterE @2046
    _ZN14WorkflowEngine6Idioma10Expression21DELIMITER_PARAM_BEGINE @2047 DATA
    _ZN14WorkflowEngine6Idioma10Expression22DELIMITER_RESULT_BEGINE @2048 DATA
    _ZN14WorkflowEngine6Idioma10Expression4makeERSs @2049
    _ZN14WorkflowEngine6Idioma10Expression9getResultEv @2050
    _ZN14WorkflowEngine6Idioma10ExpressionC1Ev @2051
    _ZN14WorkflowEngine6Idioma10ExpressionD0Ev @2052
    _ZN14WorkflowEngine6Idioma10ExpressionD1Ev @2053
    _ZN14WorkflowEngine6Idioma13ItemInterface11isOnlyDigitESs @2054
    _ZN14WorkflowEngine6Idioma13ItemInterface14CheckDelimiterESsRKSs @2055
    _ZN14WorkflowEngine6Idioma13ItemInterface14isLiteralValueESs @2056
    _ZN14WorkflowEngine6Idioma13ItemInterface7getTypeEv @2057
    _ZN14WorkflowEngine6Idioma13ItemInterfaceC2ENS0_8ItemTypeE @2058
    _ZN14WorkflowEngine6Idioma13ItemInterfaceD2Ev @2059
    _ZN14WorkflowEngine6Idioma17RetrieveParameterC2Ev @2060
    _ZN14WorkflowEngine6Idioma17RetrieveParameterD2Ev @2061
    _ZN14WorkflowEngine6Idioma7Keyword12getStatementEv @2062
    _ZN14WorkflowEngine6Idioma7Keyword13DELIMITER_ENDE @2063 DATA
    _ZN14WorkflowEngine6Idioma7Keyword15DELIMITER_BEGINE @2064 DATA
    _ZN14WorkflowEngine6Idioma7KeywordC1ESs @2065
    _ZN14WorkflowEngine6Idioma7KeywordD0Ev @2066
    _ZN14WorkflowEngine6Idioma7KeywordD1Ev @2067
    _ZN14WorkflowEngine6Idioma8FreeText12getStatementEv @2068
    _ZN14WorkflowEngine6Idioma8FreeText13DELIMITER_ENDE @2069 DATA
    _ZN14WorkflowEngine6Idioma8FreeText15DELIMITER_BEGINE @2070 DATA
    _ZN14WorkflowEngine6Idioma8FreeText7getTextEv @2071
    _ZN14WorkflowEngine6Idioma8FreeTextC1ESs @2072
    _ZN14WorkflowEngine6Idioma8FreeTextD0Ev @2073
    _ZN14WorkflowEngine6Idioma8FreeTextD1Ev @2074
    _ZN14WorkflowEngine6Idioma8Function12addParameterENS0_9ParamTypeESs @2075
    _ZN14WorkflowEngine6Idioma8Function12getNextParamERN9__gnu_cxx17__normal_iteratorIPPNS0_9ParameterESt6vectorIS5_SaIS5_EEEE @2076
    _ZN14WorkflowEngine6Idioma8Function12getStatementEv @2077
    _ZN14WorkflowEngine6Idioma8Function13DELIMITER_ENDE @2078 DATA
    _ZN14WorkflowEngine6Idioma8Function13getFirstParamERN9__gnu_cxx17__normal_iteratorIPPNS0_9ParameterESt6vectorIS5_SaIS5_EEEE @2079
    _ZN14WorkflowEngine6Idioma8Function15DELIMITER_BEGINE @2080 DATA
    _ZN14WorkflowEngine6Idioma8Function15addFunctionNameESs @2081
    _ZN14WorkflowEngine6Idioma8Function15getFunctionNameEv @2082
    _ZN14WorkflowEngine6Idioma8Function20DELIMITER_RESULT_ENDE @2083 DATA
    _ZN14WorkflowEngine6Idioma8Function22DELIMITER_FUNCTION_ENDE @2084 DATA
    _ZN14WorkflowEngine6Idioma8Function22DELIMITER_RESULT_BEGINE @2085 DATA
    _ZN14WorkflowEngine6Idioma8Function24DELIMITER_FUNCTION_BEGINE @2086 DATA
    _ZN14WorkflowEngine6Idioma8Function4makeERSs @2087
    _ZN14WorkflowEngine6Idioma8Function9addResultERSs @2088
    _ZN14WorkflowEngine6Idioma8Function9getResultEv @2089
    _ZN14WorkflowEngine6Idioma8FunctionC1Ev @2090
    _ZN14WorkflowEngine6Idioma8FunctionD0Ev @2091
    _ZN14WorkflowEngine6Idioma8FunctionD1Ev @2092
    _ZN14WorkflowEngine6Idioma8FunctionD2Ev @2093
    _ZN14WorkflowEngine6Idioma9Condition12getStatementEv @2094
    _ZN14WorkflowEngine6Idioma9Condition13DELIMITER_ENDE @2095 DATA
    _ZN14WorkflowEngine6Idioma9Condition15DELIMITER_BEGINE @2096 DATA
    _ZN14WorkflowEngine6Idioma9Condition15assignParameterESs @2097
    _ZN14WorkflowEngine6Idioma9Condition19DELIMITER_PARAM_ENDE @2098 DATA
    _ZN14WorkflowEngine6Idioma9Condition20OPERATOR_EQUAL_VALUEE @2099 DATA
    _ZN14WorkflowEngine6Idioma9Condition20setRetrieveParameterEPNS0_17RetrieveParameterE @2100
    _ZN14WorkflowEngine6Idioma9Condition21DELIMITER_PARAM_BEGINE @2101 DATA
    _ZN14WorkflowEngine6Idioma9Condition22DELIMITER_OPERATOR_ENDE @2102 DATA
    _ZN14WorkflowEngine6Idioma9Condition23OPERATOR_LESSTHAN_VALUEE @2103 DATA
    _ZN14WorkflowEngine6Idioma9Condition23OPERATOR_NOTEQUAL_VALUEE @2104 DATA
    _ZN14WorkflowEngine6Idioma9Condition24DELIMITER_OPERATOR_BEGINE @2105 DATA
    _ZN14WorkflowEngine6Idioma9Condition24LOGICALOPERATOR_OR_VALUEE @2106 DATA
    _ZN14WorkflowEngine6Idioma9Condition25LOGICALOPERATOR_AND_VALUEE @2107 DATA
    _ZN14WorkflowEngine6Idioma9Condition25LOGICALOPERATOR_NOT_VALUEE @2108 DATA
    _ZN14WorkflowEngine6Idioma9Condition27OPERATOR_GREATHERTHAN_VALUEE @2109 DATA
    _ZN14WorkflowEngine6Idioma9Condition28OPERATOR_LESSEQUALTHAN_VALUEE @2110 DATA
    _ZN14WorkflowEngine6Idioma9Condition29DELIMITER_LOGICALOPERATOR_ENDE @2111 DATA
    _ZN14WorkflowEngine6Idioma9Condition31DELIMITER_LOGICALOPERATOR_BEGINE @2112 DATA
    _ZN14WorkflowEngine6Idioma9Condition32OPERATOR_GREATHEREQUALTHAN_VALUEE @2113 DATA
    _ZN14WorkflowEngine6Idioma9Condition4makeERSs @2114
    _ZN14WorkflowEngine6Idioma9Condition9getResultEv @2115
    _ZN14WorkflowEngine6Idioma9ConditionC1Ev @2116
    _ZN14WorkflowEngine6Idioma9ConditionD0Ev @2117
    _ZN14WorkflowEngine6Idioma9ConditionD1Ev @2118
    _ZN14WorkflowEngine6Idioma9Evaluator10addKeywordERSs @2119
    _ZN14WorkflowEngine6Idioma9Evaluator11addFreeTextERSs @2120
    _ZN14WorkflowEngine6Idioma9Evaluator11addFunctionEv @2121
    _ZN14WorkflowEngine6Idioma9Evaluator11getNextItemERN9__gnu_cxx17__normal_iteratorIPPNS0_13ItemInterfaceESt6vectorIS5_SaIS5_EEEE @2122
    _ZN14WorkflowEngine6Idioma9Evaluator12addConditionEv @2123
    _ZN14WorkflowEngine6Idioma9Evaluator12getFirstItemERN9__gnu_cxx17__normal_iteratorIPPNS0_13ItemInterfaceESt6vectorIS5_SaIS5_EEEE @2124
    _ZN14WorkflowEngine6Idioma9Evaluator12getStatementEv @2125
    _ZN14WorkflowEngine6Idioma9Evaluator13addExpressionEv @2126
    _ZN14WorkflowEngine6Idioma9Evaluator20setRetrieveParameterEPNS0_17RetrieveParameterE @2127
    _ZN14WorkflowEngine6Idioma9Evaluator4makeERSs @2128
    _ZN14WorkflowEngine6Idioma9EvaluatorC1ERSs @2129
    _ZN14WorkflowEngine6Idioma9EvaluatorC1Ev @2130
    _ZN14WorkflowEngine6Idioma9EvaluatorC2ERSs @2131
    _ZN14WorkflowEngine6Idioma9EvaluatorC2Ev @2132
    _ZN14WorkflowEngine6Idioma9EvaluatorD0Ev @2133
    _ZN14WorkflowEngine6Idioma9EvaluatorD1Ev @2134
    _ZN14WorkflowEngine6Idioma9EvaluatorD2Ev @2135
    _ZN14WorkflowEngine6Idioma9Parameter12getStatementEv @2136
    _ZN14WorkflowEngine6Idioma9Parameter19DELIMITER_INPUT_ENDE @2137 DATA
    _ZN14WorkflowEngine6Idioma9Parameter20DELIMITER_OUTPUT_ENDE @2138 DATA
    _ZN14WorkflowEngine6Idioma9Parameter21DELIMITER_INPUT_BEGINE @2139 DATA
    _ZN14WorkflowEngine6Idioma9Parameter22DELIMITER_OUTPUT_BEGINE @2140 DATA
    _ZN14WorkflowEngine6Idioma9Parameter25DELIMITER_INPUTOUTPUT_ENDE @2141 DATA
    _ZN14WorkflowEngine6Idioma9Parameter27DELIMITER_INPUTOUTPUT_BEGINE @2142 DATA
    _ZN14WorkflowEngine6Idioma9Parameter7getNameEv @2143
    _ZN14WorkflowEngine6Idioma9Parameter7getTypeEv @2144
    _ZN14WorkflowEngine6Idioma9ParameterC1ENS0_9ParamTypeERSs @2145
    _ZN14WorkflowEngine6Idioma9ParameterD0Ev @2146
    _ZN14WorkflowEngine6Idioma9ParameterD1Ev @2147
    _ZN14WorkflowEngine8Criteria4Core14WorkFlowThread13setWorkflowIdEPKc @2148
    _ZN14WorkflowEngine8Criteria4Core14WorkFlowThread3runEv @2149
    _ZN14WorkflowEngine8Criteria4Core14WorkFlowThread8finalizeEv @2150
    _ZN14WorkflowEngine8Criteria4Core14WorkFlowThread9getResultEv @2151
    _ZN14WorkflowEngine8Criteria4Core14WorkFlowThreadC1EPNS1_15WorkflowManagerEPNS1_9IWorkflowE @2152
    _ZN14WorkflowEngine8Criteria4Core14WorkFlowThreadD0Ev @2153
    _ZN14WorkflowEngine8Criteria4Core14WorkFlowThreadD1Ev @2154
    _ZN14WorkflowEngine8Criteria4Core14WorkflowReport13compileReportERN11DataManager8Panorama17WorkflowProcesses6ReportE @2155
    _ZN14WorkflowEngine8Criteria4Core14WorkflowReportC1EPN11DataManager8Panorama17WorkflowProcesses15WorkflowProcessEPNS5_8ActivityE @2156
    _ZN14WorkflowEngine8Criteria4Core14WorkflowReportC2EPN11DataManager8Panorama17WorkflowProcesses15WorkflowProcessEPNS5_8ActivityE @2157
    _ZN14WorkflowEngine8Criteria4Core14WorkflowReportD0Ev @2158
    _ZN14WorkflowEngine8Criteria4Core14WorkflowReportD1Ev @2159
    _ZN14WorkflowEngine8Criteria4Core14WorkflowReportD2Ev @2160
    _ZN14WorkflowEngine8Criteria4Core15EngineException12getErrorCodeEv @2161
    _ZN14WorkflowEngine8Criteria4Core15EngineException19getErrorDescriptionEv @2162
    _ZN14WorkflowEngine8Criteria4Core15EngineExceptionC1EiPKcS4_ @2163
    _ZN14WorkflowEngine8Criteria4Core15EngineExceptionD0Ev @2164
    _ZN14WorkflowEngine8Criteria4Core15EngineExceptionD1Ev @2165
    _ZN14WorkflowEngine8Criteria4Core15WorkflowManager10deinstanceEv @2166
    _ZN14WorkflowEngine8Criteria4Core15WorkflowManager10executeJobEPNS1_9IWorkflowEb @2167
    _ZN14WorkflowEngine8Criteria4Core15WorkflowManager16getWorkflowCountEv @2168
    _ZN14WorkflowEngine8Criteria4Core15WorkflowManager3addEPNS1_9IWorkflowE @2169
    _ZN14WorkflowEngine8Criteria4Core15WorkflowManager4findEPKc @2170
    _ZN14WorkflowEngine8Criteria4Core15WorkflowManager4stopEPKc @2171
    _ZN14WorkflowEngine8Criteria4Core15WorkflowManager5startEPKc @2172
    _ZN14WorkflowEngine8Criteria4Core15WorkflowManager6removeEPKc @2173
    _ZN14WorkflowEngine8Criteria4Core15WorkflowManager7getListEv @2174
    _ZN14WorkflowEngine8Criteria4Core15WorkflowManager7suspendEPKc @2175
    _ZN14WorkflowEngine8Criteria4Core15WorkflowManager8instanceEv @2176
    _ZN14WorkflowEngine8Criteria4Core15WorkflowManager9_instanceE @2177 DATA
    _ZN14WorkflowEngine8Criteria4Core15WorkflowManagerC1Ev @2178
    _ZN14WorkflowEngine8Criteria4Core15WorkflowManagerC2Ev @2179
    _ZN14WorkflowEngine8Criteria4Core15WorkflowManagerD0Ev @2180
    _ZN14WorkflowEngine8Criteria4Core15WorkflowManagerD1Ev @2181
    _ZN14WorkflowEngine8Criteria4Core15WorkflowManagerD2Ev @2182
    _ZN14WorkflowEngine8Criteria4Core17WorkflowExceptionC1ERKSs @2183
    _ZN14WorkflowEngine8Criteria4Core17WorkflowExceptionD0Ev @2184
    _ZN14WorkflowEngine8Criteria4Core17WorkflowExceptionD1Ev @2185
    _ZN14WorkflowEngine8Criteria4Core19EventsManagerThread16stopEventManagerEv @2186
    _ZN14WorkflowEngine8Criteria4Core19EventsManagerThread3runEv @2187
    _ZN14WorkflowEngine8Criteria4Core19EventsManagerThread8finalizeEv @2188
    _ZN14WorkflowEngine8Criteria4Core19EventsManagerThreadC1EPNS_13EventsManagerE @2189
    _ZN14WorkflowEngine8Criteria4Core19EventsManagerThreadC2EPNS_13EventsManagerE @2190
    _ZN14WorkflowEngine8Criteria4Core19EventsManagerThreadD0Ev @2191
    _ZN14WorkflowEngine8Criteria4Core19EventsManagerThreadD1Ev @2192
    _ZN14WorkflowEngine8Criteria4Core19EventsManagerThreadD2Ev @2193
    _ZN14WorkflowEngine8Criteria4Core6Engine10deinstanceEv @2194
    _ZN14WorkflowEngine8Criteria4Core6Engine13startWorkFlowEPKc @2195
    _ZN14WorkflowEngine8Criteria4Core6Engine15restartWorkFlowEPKc @2196
    _ZN14WorkflowEngine8Criteria4Core6Engine15restartWorkFlowEPKcS4_ @2197
    _ZN14WorkflowEngine8Criteria4Core6Engine17getNextStatusListEm @2198
    _ZN14WorkflowEngine8Criteria4Core6Engine21executeApplicationApiEPKc @2199
    _ZN14WorkflowEngine8Criteria4Core6Engine21numberWorkflowRunningEv @2200
    _ZN14WorkflowEngine8Criteria4Core6Engine22getWorkflowRunningListEv @2201
    _ZN14WorkflowEngine8Criteria4Core6Engine23startWorkFlowInSynchWayEPKc @2202
    _ZN14WorkflowEngine8Criteria4Core6Engine25restartWorkFlowInSynchWayEPKc @2203
    _ZN14WorkflowEngine8Criteria4Core6Engine25restartWorkFlowInSynchWayEPKcS4_ @2204
    _ZN14WorkflowEngine8Criteria4Core6Engine7executeEPKcbS4_S4_b @2205
    _ZN14WorkflowEngine8Criteria4Core6Engine7executeEPKcbS4_b @2206
    _ZN14WorkflowEngine8Criteria4Core6Engine8instanceEv @2207
    _ZN14WorkflowEngine8Criteria4Core6Engine9_instanceE @2208 DATA
    _ZN14WorkflowEngine8Criteria4Core6EngineC1Ev @2209
    _ZN14WorkflowEngine8Criteria4Core6EngineC2Ev @2210
    _ZN14WorkflowEngine8Criteria4Core6EngineD0Ev @2211
    _ZN14WorkflowEngine8Criteria4Core6EngineD1Ev @2212
    _ZN14WorkflowEngine8Criteria4Core6EngineD2Ev @2213
    _ZN14WorkflowEngine8Criteria4Core8Workflow10getProcessEv @2214
    _ZN14WorkflowEngine8Criteria4Core8Workflow10setRestartEv @2215
    _ZN14WorkflowEngine8Criteria4Core8Workflow10suspendingEv @2216
    _ZN14WorkflowEngine8Criteria4Core8Workflow11checkResultEPN11DataManager8Panorama17WorkflowProcesses10TransitionEPNS5_8ActivityE @2217
    _ZN14WorkflowEngine8Criteria4Core8Workflow11getNextTaskEPN11DataManager8Panorama17WorkflowProcesses8ActivityE @2218
    _ZN14WorkflowEngine8Criteria4Core8Workflow12setBeginTaskESs @2219
    _ZN14WorkflowEngine8Criteria4Core8Workflow12setBeginTaskESsRN11DataManager8Panorama6Common16FormalParametersE @2220
    _ZN14WorkflowEngine8Criteria4Core8Workflow12setBeginTaskESsSs @2221
    _ZN14WorkflowEngine8Criteria4Core8Workflow13getAttributesEv @2222
    _ZN14WorkflowEngine8Criteria4Core8Workflow14setExit2ManageEv @2223
    _ZN14WorkflowEngine8Criteria4Core8Workflow15isStoppedByTaskEv @2224
    _ZN14WorkflowEngine8Criteria4Core8Workflow16getParentProcessEv @2225
    _ZN14WorkflowEngine8Criteria4Core8Workflow16setParentProcessEPKc @2226
    _ZN14WorkflowEngine8Criteria4Core8Workflow16setStoppedByTaskEv @2227
    _ZN14WorkflowEngine8Criteria4Core8Workflow16setWorkflowChildEPS2_ @2228
    _ZN14WorkflowEngine8Criteria4Core8Workflow16setWorkflowChildEv @2229
    _ZN14WorkflowEngine8Criteria4Core8Workflow18manageMessageFlowsEPN11DataManager8Panorama17WorkflowProcesses8ActivityE @2230
    _ZN14WorkflowEngine8Criteria4Core8Workflow18setNoErrorManagingEv @2231
    _ZN14WorkflowEngine8Criteria4Core8Workflow20addAttribute2ProcessEPKcS4_ @2232
    _ZN14WorkflowEngine8Criteria4Core8Workflow20addAttribute2ProcessEPKci @2233
    _ZN14WorkflowEngine8Criteria4Core8Workflow20addAttribute2ProcessERN11DataManager8Panorama20WorkflowRelevantData10AttributesE @2234
    _ZN14WorkflowEngine8Criteria4Core8Workflow20addAttribute2ProcessERN11DataManager8Panorama20WorkflowRelevantData9AttributeE @2235
    _ZN14WorkflowEngine8Criteria4Core8Workflow20getTaskParentProcessEv @2236
    _ZN14WorkflowEngine8Criteria4Core8Workflow20setTaskParentProcessEPKc @2237
    _ZN14WorkflowEngine8Criteria4Core8Workflow4initEv @2238
    _ZN14WorkflowEngine8Criteria4Core8Workflow7exploreEPN11DataManager8Panorama17WorkflowProcesses8ActivityE @2239
    _ZN14WorkflowEngine8Criteria4Core8Workflow8getLevelEv @2240
    _ZN14WorkflowEngine8Criteria4Core8Workflow8setLevelEi @2241
    _ZN14WorkflowEngine8Criteria4Core8Workflow8startingEv @2242
    _ZN14WorkflowEngine8Criteria4Core8Workflow8stoppingEv @2243
    _ZN14WorkflowEngine8Criteria4Core8Workflow9getStatusEv @2244
    _ZN14WorkflowEngine8Criteria4Core8Workflow9setAnchorEv @2245
    _ZN14WorkflowEngine8Criteria4Core8Workflow9setFatherEv @2246
    _ZN14WorkflowEngine8Criteria4Core8Workflow9setStatusEi @2247
    _ZN14WorkflowEngine8Criteria4Core8WorkflowC1EPKc @2248
    _ZN14WorkflowEngine8Criteria4Core8WorkflowC1EPN11DataManager8Panorama17WorkflowProcesses15WorkflowProcessE @2249
    _ZN14WorkflowEngine8Criteria4Core8WorkflowC1EPN11DataManager8Panorama17WorkflowProcesses15WorkflowProcessEPNS5_8ActivityE @2250
    _ZN14WorkflowEngine8Criteria4Core8WorkflowC1Ev @2251
    _ZN14WorkflowEngine8Criteria4Core8WorkflowC2EPKc @2252
    _ZN14WorkflowEngine8Criteria4Core8WorkflowC2EPN11DataManager8Panorama17WorkflowProcesses15WorkflowProcessE @2253
    _ZN14WorkflowEngine8Criteria4Core8WorkflowC2EPN11DataManager8Panorama17WorkflowProcesses15WorkflowProcessEPNS5_8ActivityE @2254
    _ZN14WorkflowEngine8Criteria4Core8WorkflowC2Ev @2255
    _ZN14WorkflowEngine8Criteria4Core8WorkflowD0Ev @2256
    _ZN14WorkflowEngine8Criteria4Core8WorkflowD1Ev @2257
    _ZN14WorkflowEngine8Criteria4Core8WorkflowD2Ev @2258
    _ZN14WorkflowEngine8Criteria4Core8WorkflowaSEPS2_ @2259
    _ZN14WorkflowEngine8Criteria4Core9IWorkflow10gotoStatusENS2_14WorkflowStatusES3_ @2260
    _ZN14WorkflowEngine8Criteria4Core9IWorkflow13getWorkflowIDEv @2261
    _ZN14WorkflowEngine8Criteria4Core9IWorkflow13setWorkflowIdEPKc @2262
    _ZN14WorkflowEngine8Criteria4Core9IWorkflow4stopEv @2263
    _ZN14WorkflowEngine8Criteria4Core9IWorkflow5startEv @2264
    _ZN14WorkflowEngine8Criteria4Core9IWorkflow7suspendEv @2265
    _ZN14WorkflowEngine8Criteria4Core9IWorkflow9setStatusENS2_14WorkflowStatusE @2266
    _ZN14WorkflowEngine8Criteria4Core9IWorkflowC1Ev @2267
    _ZN14WorkflowEngine8Criteria4Core9IWorkflowC2Ev @2268
    _ZN14WorkflowEngine8Criteria4Core9IWorkflowD0Ev @2269
    _ZN14WorkflowEngine8Criteria4Core9IWorkflowD1Ev @2270
    _ZN14WorkflowEngine8Criteria4Core9IWorkflowD2Ev @2271
    _ZN14WorkflowEngine8Criteria5Event10EventMaker10throwEventENS1_9BaseEventE @2272
    _ZN14WorkflowEngine8Criteria5Event10EventMaker16addEventListenerEPNS1_13EventListenerE @2273
    _ZN14WorkflowEngine8Criteria5Event10EventMaker17addEventListenersERSt6vectorIPNS1_13EventListenerESaIS5_EE @2274
    _ZN14WorkflowEngine8Criteria5Event10EventMakerC1ESs @2275
    _ZN14WorkflowEngine8Criteria5Event10EventMakerC2ESs @2276
    _ZN14WorkflowEngine8Criteria5Event10EventMakerD0Ev @2277
    _ZN14WorkflowEngine8Criteria5Event10EventMakerD1Ev @2278
    _ZN14WorkflowEngine8Criteria5Event10EventMakerD2Ev @2279
    _ZN14WorkflowEngine8Criteria5Event12ProcessEvent16BaseProcessEvent12getProcessIDEv @2280
    _ZN14WorkflowEngine8Criteria5Event12ProcessEvent16BaseProcessEventC1EPKcSsi @2281
    _ZN14WorkflowEngine8Criteria5Event12ProcessEvent16BaseProcessEventC1EPN11DataManager8Panorama17WorkflowProcesses15WorkflowProcessESsi @2282
    _ZN14WorkflowEngine8Criteria5Event12ProcessEvent16BaseProcessEventC2EPKcSsi @2283
    _ZN14WorkflowEngine8Criteria5Event12ProcessEvent16BaseProcessEventC2EPN11DataManager8Panorama17WorkflowProcesses15WorkflowProcessESsi @2284
    _ZN14WorkflowEngine8Criteria5Event12ProcessEvent16BaseProcessEventD0Ev @2285
    _ZN14WorkflowEngine8Criteria5Event12ProcessEvent16BaseProcessEventD1Ev @2286
    _ZN14WorkflowEngine8Criteria5Event12ProcessEvent16BaseProcessEventD2Ev @2287
    _ZN14WorkflowEngine8Criteria5Event12ProcessEvent19CreatedProcessEvent10_EventNameE @2288 DATA
    _ZN14WorkflowEngine8Criteria5Event12ProcessEvent19CreatedProcessEvent8_EventIDE @2289 DATA
    _ZN14WorkflowEngine8Criteria5Event12ProcessEvent19CreatedProcessEventC1EPKc @2290
    _ZN14WorkflowEngine8Criteria5Event12ProcessEvent19CreatedProcessEventC1EPN11DataManager8Panorama17WorkflowProcesses15WorkflowProcessE @2291
    _ZN14WorkflowEngine8Criteria5Event12ProcessEvent19CreatedProcessEventC2EPKc @2292
    _ZN14WorkflowEngine8Criteria5Event12ProcessEvent19CreatedProcessEventC2EPN11DataManager8Panorama17WorkflowProcesses15WorkflowProcessE @2293
    _ZN14WorkflowEngine8Criteria5Event12ProcessEvent19CreatedProcessEventD0Ev @2294
    _ZN14WorkflowEngine8Criteria5Event12ProcessEvent19CreatedProcessEventD1Ev @2295
    _ZN14WorkflowEngine8Criteria5Event12ProcessEvent19CreatedProcessEventD2Ev @2296
    _ZN14WorkflowEngine8Criteria5Event12ProcessEvent20CreatingProcessEvent10_EventNameE @2297 DATA
    _ZN14WorkflowEngine8Criteria5Event12ProcessEvent20CreatingProcessEvent8_EventIDE @2298 DATA
    _ZN14WorkflowEngine8Criteria5Event12ProcessEvent20CreatingProcessEventC1EPKc @2299
    _ZN14WorkflowEngine8Criteria5Event12ProcessEvent20CreatingProcessEventC1EPN11DataManager8Panorama17WorkflowProcesses15WorkflowProcessE @2300
    _ZN14WorkflowEngine8Criteria5Event12ProcessEvent20CreatingProcessEventC2EPKc @2301
    _ZN14WorkflowEngine8Criteria5Event12ProcessEvent20CreatingProcessEventC2EPN11DataManager8Panorama17WorkflowProcesses15WorkflowProcessE @2302
    _ZN14WorkflowEngine8Criteria5Event12ProcessEvent20CreatingProcessEventD0Ev @2303
    _ZN14WorkflowEngine8Criteria5Event12ProcessEvent20CreatingProcessEventD1Ev @2304
    _ZN14WorkflowEngine8Criteria5Event12ProcessEvent20CreatingProcessEventD2Ev @2305
    _ZN14WorkflowEngine8Criteria5Event13EventListener7getNameEv @2306
    _ZN14WorkflowEngine8Criteria5Event13EventListenerC1ESs @2307
    _ZN14WorkflowEngine8Criteria5Event13EventListenerC2ESs @2308
    _ZN14WorkflowEngine8Criteria5Event13EventListenerD0Ev @2309
    _ZN14WorkflowEngine8Criteria5Event13EventListenerD1Ev @2310
    _ZN14WorkflowEngine8Criteria5Event13EventListenerD2Ev @2311
    _ZN14WorkflowEngine8Criteria5Event13WorkflowEvent16EndWorkflowEvent10_EventNameE @2312 DATA
    _ZN14WorkflowEngine8Criteria5Event13WorkflowEvent16EndWorkflowEvent8_EventIDE @2313 DATA
    _ZN14WorkflowEngine8Criteria5Event13WorkflowEvent16EndWorkflowEventC1EPNS0_4Core8WorkflowE @2314
    _ZN14WorkflowEngine8Criteria5Event13WorkflowEvent16EndWorkflowEventC2EPNS0_4Core8WorkflowE @2315
    _ZN14WorkflowEngine8Criteria5Event13WorkflowEvent16EndWorkflowEventD0Ev @2316
    _ZN14WorkflowEngine8Criteria5Event13WorkflowEvent16EndWorkflowEventD1Ev @2317
    _ZN14WorkflowEngine8Criteria5Event13WorkflowEvent16EndWorkflowEventD2Ev @2318
    _ZN14WorkflowEngine8Criteria5Event13WorkflowEvent17BaseWorkflowEvent12getProcessIDEv @2319
    _ZN14WorkflowEngine8Criteria5Event13WorkflowEvent17BaseWorkflowEventC1EPNS0_4Core8WorkflowESsi @2320
    _ZN14WorkflowEngine8Criteria5Event13WorkflowEvent17BaseWorkflowEventC2EPNS0_4Core8WorkflowESsi @2321
    _ZN14WorkflowEngine8Criteria5Event13WorkflowEvent17BaseWorkflowEventD0Ev @2322
    _ZN14WorkflowEngine8Criteria5Event13WorkflowEvent17BaseWorkflowEventD1Ev @2323
    _ZN14WorkflowEngine8Criteria5Event13WorkflowEvent17BaseWorkflowEventD2Ev @2324
    _ZN14WorkflowEngine8Criteria5Event13WorkflowEvent18ErrorWorkflowEvent10_EventNameE @2325 DATA
    _ZN14WorkflowEngine8Criteria5Event13WorkflowEvent18ErrorWorkflowEvent8_EventIDE @2326 DATA
    _ZN14WorkflowEngine8Criteria5Event13WorkflowEvent18ErrorWorkflowEventC1EPNS0_4Core8WorkflowE @2327
    _ZN14WorkflowEngine8Criteria5Event13WorkflowEvent18ErrorWorkflowEventC2EPNS0_4Core8WorkflowE @2328
    _ZN14WorkflowEngine8Criteria5Event13WorkflowEvent18ErrorWorkflowEventD0Ev @2329
    _ZN14WorkflowEngine8Criteria5Event13WorkflowEvent18ErrorWorkflowEventD1Ev @2330
    _ZN14WorkflowEngine8Criteria5Event13WorkflowEvent18ErrorWorkflowEventD2Ev @2331
    _ZN14WorkflowEngine8Criteria5Event13WorkflowEvent19ManualWorkflowEvent10_EventNameE @2332 DATA
    _ZN14WorkflowEngine8Criteria5Event13WorkflowEvent19ManualWorkflowEvent8_EventIDE @2333 DATA
    _ZN14WorkflowEngine8Criteria5Event13WorkflowEvent19ManualWorkflowEventC1EPNS0_4Core8WorkflowE @2334
    _ZN14WorkflowEngine8Criteria5Event13WorkflowEvent19ManualWorkflowEventC2EPNS0_4Core8WorkflowE @2335
    _ZN14WorkflowEngine8Criteria5Event13WorkflowEvent19ManualWorkflowEventD0Ev @2336
    _ZN14WorkflowEngine8Criteria5Event13WorkflowEvent19ManualWorkflowEventD1Ev @2337
    _ZN14WorkflowEngine8Criteria5Event13WorkflowEvent19ManualWorkflowEventD2Ev @2338
    _ZN14WorkflowEngine8Criteria5Event13WorkflowEvent20StartedWorkflowEvent10_EventNameE @2339 DATA
    _ZN14WorkflowEngine8Criteria5Event13WorkflowEvent20StartedWorkflowEvent8_EventIDE @2340 DATA
    _ZN14WorkflowEngine8Criteria5Event13WorkflowEvent20StartedWorkflowEventC1EPNS0_4Core8WorkflowE @2341
    _ZN14WorkflowEngine8Criteria5Event13WorkflowEvent20StartedWorkflowEventC2EPNS0_4Core8WorkflowE @2342
    _ZN14WorkflowEngine8Criteria5Event13WorkflowEvent20StartedWorkflowEventD0Ev @2343
    _ZN14WorkflowEngine8Criteria5Event13WorkflowEvent20StartedWorkflowEventD1Ev @2344
    _ZN14WorkflowEngine8Criteria5Event13WorkflowEvent20StartedWorkflowEventD2Ev @2345
    _ZN14WorkflowEngine8Criteria5Event13WorkflowEvent21StartingWorkflowEvent10_EventNameE @2346 DATA
    _ZN14WorkflowEngine8Criteria5Event13WorkflowEvent21StartingWorkflowEvent8_EventIDE @2347 DATA
    _ZN14WorkflowEngine8Criteria5Event13WorkflowEvent21StartingWorkflowEventC1EPNS0_4Core8WorkflowE @2348
    _ZN14WorkflowEngine8Criteria5Event13WorkflowEvent21StartingWorkflowEventC2EPNS0_4Core8WorkflowE @2349
    _ZN14WorkflowEngine8Criteria5Event13WorkflowEvent21StartingWorkflowEventD0Ev @2350
    _ZN14WorkflowEngine8Criteria5Event13WorkflowEvent21StartingWorkflowEventD1Ev @2351
    _ZN14WorkflowEngine8Criteria5Event13WorkflowEvent21StartingWorkflowEventD2Ev @2352
    _ZN14WorkflowEngine8Criteria5Event13WorkflowEvent22RestartedWorkflowEvent10_EventNameE @2353 DATA
    _ZN14WorkflowEngine8Criteria5Event13WorkflowEvent22RestartedWorkflowEvent8_EventIDE @2354 DATA
    _ZN14WorkflowEngine8Criteria5Event13WorkflowEvent22RestartedWorkflowEventC1EPNS0_4Core8WorkflowE @2355
    _ZN14WorkflowEngine8Criteria5Event13WorkflowEvent22RestartedWorkflowEventC2EPNS0_4Core8WorkflowE @2356
    _ZN14WorkflowEngine8Criteria5Event13WorkflowEvent22RestartedWorkflowEventD0Ev @2357
    _ZN14WorkflowEngine8Criteria5Event13WorkflowEvent22RestartedWorkflowEventD1Ev @2358
    _ZN14WorkflowEngine8Criteria5Event13WorkflowEvent22RestartedWorkflowEventD2Ev @2359
    _ZN14WorkflowEngine8Criteria5Event8Listener16WorkflowListener11eventActionERNS1_9BaseEventE @2360
    _ZN14WorkflowEngine8Criteria5Event8Listener16WorkflowListener13ENGINE_NOTIFYE @2361 DATA
    _ZN14WorkflowEngine8Criteria5Event8Listener16WorkflowListener15PROCESSINSTANCEE @2362 DATA
    _ZN14WorkflowEngine8Criteria5Event8Listener16WorkflowListener6STATUSE @2363 DATA
    _ZN14WorkflowEngine8Criteria5Event8Listener16WorkflowListenerC1Ev @2364
    _ZN14WorkflowEngine8Criteria5Event8Listener16WorkflowListenerC2Ev @2365
    _ZN14WorkflowEngine8Criteria5Event8Listener16WorkflowListenerD0Ev @2366
    _ZN14WorkflowEngine8Criteria5Event8Listener16WorkflowListenerD1Ev @2367
    _ZN14WorkflowEngine8Criteria5Event8Listener16WorkflowListenerD2Ev @2368
    _ZN14WorkflowEngine8Criteria5Event9BaseEvent11getDateTimeEv @2369
    _ZN14WorkflowEngine8Criteria5Event9BaseEvent5getIDEv @2370
    _ZN14WorkflowEngine8Criteria5Event9BaseEvent7getNameEv @2371
    _ZN14WorkflowEngine8Criteria5Event9BaseEventC1ERKS2_ @2372
    _ZN14WorkflowEngine8Criteria5Event9BaseEventC1ESsi @2373
    _ZN14WorkflowEngine8Criteria5Event9BaseEventC2ESsi @2374
    _ZN14WorkflowEngine8Criteria5Event9BaseEventD0Ev @2375
    _ZN14WorkflowEngine8Criteria5Event9BaseEventD1Ev @2376
    _ZN14WorkflowEngine8Criteria5Event9BaseEventD2Ev @2377
    _ZN14WorkflowEngine8Criteria9BasicTask11Application23ApplicationFunctionTask7executeEv @2378
    _ZN14WorkflowEngine8Criteria9BasicTask11Application23ApplicationFunctionTaskC1EPN11DataManager8Panorama17WorkflowProcesses15WorkflowProcessEPNS6_8ActivityE @2379
    _ZN14WorkflowEngine8Criteria9BasicTask11Application23ApplicationFunctionTaskC2EPN11DataManager8Panorama17WorkflowProcesses15WorkflowProcessEPNS6_8ActivityE @2380
    _ZN14WorkflowEngine8Criteria9BasicTask11Application23ApplicationFunctionTaskD0Ev @2381
    _ZN14WorkflowEngine8Criteria9BasicTask11Application23ApplicationFunctionTaskD1Ev @2382
    _ZN14WorkflowEngine8Criteria9BasicTask11Application23ApplicationFunctionTaskD2Ev @2383
    _ZN14WorkflowEngine8Criteria9BasicTask11Application6Action25ApplicationFunctionAction14evaluateActionEv @2384
    _ZN14WorkflowEngine8Criteria9BasicTask11Application6Action25ApplicationFunctionAction24DEFAULT_RESULT_ATTRIBUTEE @2385 DATA
    _ZN14WorkflowEngine8Criteria9BasicTask11Application6Action25ApplicationFunctionActionC1EPN11DataManager8Panorama17WorkflowProcesses15WorkflowProcessEPNS7_8ActivityE @2386
    _ZN14WorkflowEngine8Criteria9BasicTask11Application6Action25ApplicationFunctionActionC2EPN11DataManager8Panorama17WorkflowProcesses15WorkflowProcessEPNS7_8ActivityE @2387
    _ZN14WorkflowEngine8Criteria9BasicTask11Application6Action25ApplicationFunctionActionD0Ev @2388
    _ZN14WorkflowEngine8Criteria9BasicTask11Application6Action25ApplicationFunctionActionD1Ev @2389
    _ZN14WorkflowEngine8Criteria9BasicTask11Application6Action25ApplicationFunctionActionD2Ev @2390
    _ZN14WorkflowEngine8Criteria9BasicTask11Application6Action31ApplicationFunctionActionAttach14evaluateActionEv @2391
    _ZN14WorkflowEngine8Criteria9BasicTask11Application6Action31ApplicationFunctionActionAttach6actionERSs @2392
    _ZN14WorkflowEngine8Criteria9BasicTask11Application6Action31ApplicationFunctionActionAttachC1EPN11DataManager8Panorama17WorkflowProcesses15WorkflowProcessEPNS7_8ActivityE @2393
    _ZN14WorkflowEngine8Criteria9BasicTask11Application6Action31ApplicationFunctionActionAttachC2EPN11DataManager8Panorama17WorkflowProcesses15WorkflowProcessEPNS7_8ActivityE @2394
    _ZN14WorkflowEngine8Criteria9BasicTask11Application6Action31ApplicationFunctionActionAttachD0Ev @2395
    _ZN14WorkflowEngine8Criteria9BasicTask11Application6Action31ApplicationFunctionActionAttachD1Ev @2396
    _ZN14WorkflowEngine8Criteria9BasicTask11Application6Action31ApplicationFunctionActionAttachD2Ev @2397
    _ZN14WorkflowEngine8Criteria9BasicTask3XML6Action13XMLActionXSLT10XMLFILE_INE @2398 DATA
    _ZN14WorkflowEngine8Criteria9BasicTask3XML6Action13XMLActionXSLT10XSLFILE_INE @2399 DATA
    _ZN14WorkflowEngine8Criteria9BasicTask3XML6Action13XMLActionXSLT11XMLFILE_OUTE @2400 DATA
    _ZN14WorkflowEngine8Criteria9BasicTask3XML6Action13XMLActionXSLT12XMLSTRING_INE @2401 DATA
    _ZN14WorkflowEngine8Criteria9BasicTask3XML6Action13XMLActionXSLT12XSLSTRING_INE @2402 DATA
    _ZN14WorkflowEngine8Criteria9BasicTask3XML6Action13XMLActionXSLT13XMLSTRING_OUTE @2403 DATA
    _ZN14WorkflowEngine8Criteria9BasicTask3XML6Action13XMLActionXSLT14evaluateActionEv @2404
    _ZN14WorkflowEngine8Criteria9BasicTask3XML6Action13XMLActionXSLT6actionERSs @2405
    _ZN14WorkflowEngine8Criteria9BasicTask3XML6Action13XMLActionXSLT9WF_OBJECTE @2406 DATA
    _ZN14WorkflowEngine8Criteria9BasicTask3XML6Action13XMLActionXSLTC1EPN11DataManager8Panorama17WorkflowProcesses15WorkflowProcessEPNS7_8ActivityE @2407
    _ZN14WorkflowEngine8Criteria9BasicTask3XML6Action13XMLActionXSLTC2EPN11DataManager8Panorama17WorkflowProcesses15WorkflowProcessEPNS7_8ActivityE @2408
    _ZN14WorkflowEngine8Criteria9BasicTask3XML6Action13XMLActionXSLTD0Ev @2409
    _ZN14WorkflowEngine8Criteria9BasicTask3XML6Action13XMLActionXSLTD1Ev @2410
    _ZN14WorkflowEngine8Criteria9BasicTask3XML6Action13XMLActionXSLTD2Ev @2411
    _ZN14WorkflowEngine8Criteria9BasicTask3XML6Action16XMLActionXMLFile12XMLATTRIBUTEE @2412 DATA
    _ZN14WorkflowEngine8Criteria9BasicTask3XML6Action16XMLActionXMLFile14evaluateActionEv @2413
    _ZN14WorkflowEngine8Criteria9BasicTask3XML6Action16XMLActionXMLFile6actionERSs @2414
    _ZN14WorkflowEngine8Criteria9BasicTask3XML6Action16XMLActionXMLFile7XMLFILEE @2415 DATA
    _ZN14WorkflowEngine8Criteria9BasicTask3XML6Action16XMLActionXMLFileC1EPN11DataManager8Panorama17WorkflowProcesses15WorkflowProcessEPNS7_8ActivityEb @2416
    _ZN14WorkflowEngine8Criteria9BasicTask3XML6Action16XMLActionXMLFileC2EPN11DataManager8Panorama17WorkflowProcesses15WorkflowProcessEPNS7_8ActivityEb @2417
    _ZN14WorkflowEngine8Criteria9BasicTask3XML6Action16XMLActionXMLFileD0Ev @2418
    _ZN14WorkflowEngine8Criteria9BasicTask3XML6Action16XMLActionXMLFileD1Ev @2419
    _ZN14WorkflowEngine8Criteria9BasicTask3XML6Action16XMLActionXMLFileD2Ev @2420
    _ZN14WorkflowEngine8Criteria9BasicTask3XML6Action9XMLAction14evaluateActionEv @2421
    _ZN14WorkflowEngine8Criteria9BasicTask3XML6Action9XMLActionC1EPN11DataManager8Panorama17WorkflowProcesses15WorkflowProcessEPNS7_8ActivityE @2422
    _ZN14WorkflowEngine8Criteria9BasicTask3XML6Action9XMLActionC2EPN11DataManager8Panorama17WorkflowProcesses15WorkflowProcessEPNS7_8ActivityE @2423
    _ZN14WorkflowEngine8Criteria9BasicTask3XML6Action9XMLActionD0Ev @2424
    _ZN14WorkflowEngine8Criteria9BasicTask3XML6Action9XMLActionD1Ev @2425
    _ZN14WorkflowEngine8Criteria9BasicTask3XML6Action9XMLActionD2Ev @2426
    _ZN14WorkflowEngine8Criteria9BasicTask3XML7XMLTask7executeEv @2427
    _ZN14WorkflowEngine8Criteria9BasicTask3XML7XMLTaskC1EPN11DataManager8Panorama17WorkflowProcesses15WorkflowProcessEPNS6_8ActivityE @2428
    _ZN14WorkflowEngine8Criteria9BasicTask3XML7XMLTaskC2EPN11DataManager8Panorama17WorkflowProcesses15WorkflowProcessEPNS6_8ActivityE @2429
    _ZN14WorkflowEngine8Criteria9BasicTask3XML7XMLTaskD0Ev @2430
    _ZN14WorkflowEngine8Criteria9BasicTask3XML7XMLTaskD1Ev @2431
    _ZN14WorkflowEngine8Criteria9BasicTask3XML7XMLTaskD2Ev @2432
    _ZN14WorkflowEngine8Criteria9BasicTask5Event6Action11EventAction14evaluateActionEv @2433
    _ZN14WorkflowEngine8Criteria9BasicTask5Event6Action11EventActionC1EPN11DataManager8Panorama17WorkflowProcesses15WorkflowProcessEPNS7_8ActivityE @2434
    _ZN14WorkflowEngine8Criteria9BasicTask5Event6Action11EventActionC2EPN11DataManager8Panorama17WorkflowProcesses15WorkflowProcessEPNS7_8ActivityE @2435
    _ZN14WorkflowEngine8Criteria9BasicTask5Event6Action11EventActionD0Ev @2436
    _ZN14WorkflowEngine8Criteria9BasicTask5Event6Action11EventActionD1Ev @2437
    _ZN14WorkflowEngine8Criteria9BasicTask5Event6Action11EventActionD2Ev @2438
    _ZN14WorkflowEngine8Criteria9BasicTask5Event6Action15MakeEventAction14evaluateActionEv @2439
    _ZN14WorkflowEngine8Criteria9BasicTask5Event6Action15MakeEventAction6actionERSs @2440
    _ZN14WorkflowEngine8Criteria9BasicTask5Event6Action15MakeEventActionC1EPN11DataManager8Panorama17WorkflowProcesses15WorkflowProcessEPNS7_8ActivityE @2441
    _ZN14WorkflowEngine8Criteria9BasicTask5Event6Action15MakeEventActionC2EPN11DataManager8Panorama17WorkflowProcesses15WorkflowProcessEPNS7_8ActivityE @2442
    _ZN14WorkflowEngine8Criteria9BasicTask5Event6Action15MakeEventActionD0Ev @2443
    _ZN14WorkflowEngine8Criteria9BasicTask5Event6Action15MakeEventActionD1Ev @2444
    _ZN14WorkflowEngine8Criteria9BasicTask5Event6Action15MakeEventActionD2Ev @2445
    _ZN14WorkflowEngine8Criteria9BasicTask5Event6Action18ConsumeEventAction14evaluateActionEv @2446
    _ZN14WorkflowEngine8Criteria9BasicTask5Event6Action18ConsumeEventAction6actionERSs @2447
    _ZN14WorkflowEngine8Criteria9BasicTask5Event6Action18ConsumeEventActionC1EPN11DataManager8Panorama17WorkflowProcesses15WorkflowProcessEPNS7_8ActivityERNS6_6Common16FormalParametersE @2448
    _ZN14WorkflowEngine8Criteria9BasicTask5Event6Action18ConsumeEventActionC2EPN11DataManager8Panorama17WorkflowProcesses15WorkflowProcessEPNS7_8ActivityERNS6_6Common16FormalParametersE @2449
    _ZN14WorkflowEngine8Criteria9BasicTask5Event6Action18ConsumeEventActionD0Ev @2450
    _ZN14WorkflowEngine8Criteria9BasicTask5Event6Action18ConsumeEventActionD1Ev @2451
    _ZN14WorkflowEngine8Criteria9BasicTask5Event6Action18ConsumeEventActionD2Ev @2452
    _ZN14WorkflowEngine8Criteria9BasicTask5Event9EventTask7executeEv @2453
    _ZN14WorkflowEngine8Criteria9BasicTask5Event9EventTaskC1EPN11DataManager8Panorama17WorkflowProcesses15WorkflowProcessEPNS6_8ActivityERNS5_6Common16FormalParametersE @2454
    _ZN14WorkflowEngine8Criteria9BasicTask5Event9EventTaskC2EPN11DataManager8Panorama17WorkflowProcesses15WorkflowProcessEPNS6_8ActivityERNS5_6Common16FormalParametersE @2455
    _ZN14WorkflowEngine8Criteria9BasicTask5Event9EventTaskD0Ev @2456
    _ZN14WorkflowEngine8Criteria9BasicTask5Event9EventTaskD1Ev @2457
    _ZN14WorkflowEngine8Criteria9BasicTask5Event9EventTaskD2Ev @2458
    _ZN14WorkflowEngine8Criteria9BasicTask6Action10BaseAction11ACTION_NONEE @2459 DATA
    _ZN14WorkflowEngine8Criteria9BasicTask6Action10BaseAction12getAttributeERKSs @2460
    _ZN14WorkflowEngine8Criteria9BasicTask6Action10BaseAction14evaluateActionEv @2461
    _ZN14WorkflowEngine8Criteria9BasicTask6Action10BaseAction14getVarsContextEv @2462
    _ZN14WorkflowEngine8Criteria9BasicTask6Action10BaseAction20setNotEvaluateActionEv @2463
    _ZN14WorkflowEngine8Criteria9BasicTask6Action10BaseAction21getEvaluatedParameterERKSsPKc @2464
    _ZN14WorkflowEngine8Criteria9BasicTask6Action10BaseAction3fixEv @2465
    _ZN14WorkflowEngine8Criteria9BasicTask6Action10BaseActionC1EPN11DataManager8Panorama17WorkflowProcesses15WorkflowProcessEPNS6_8ActivityE @2466
    _ZN14WorkflowEngine8Criteria9BasicTask6Action10BaseActionC2EPN11DataManager8Panorama17WorkflowProcesses15WorkflowProcessEPNS6_8ActivityE @2467
    _ZN14WorkflowEngine8Criteria9BasicTask6Action10BaseActionD0Ev @2468
    _ZN14WorkflowEngine8Criteria9BasicTask6Action10BaseActionD1Ev @2469
    _ZN14WorkflowEngine8Criteria9BasicTask6Action10BaseActionD2Ev @2470
    _ZN14WorkflowEngine8Criteria9BasicTask6Action21EvalRetrieveParameter8getValueESs @2471
    _ZN14WorkflowEngine8Criteria9BasicTask6Action21EvalRetrieveParameter9setActionEPNS2_10BaseActionE @2472
    _ZN14WorkflowEngine8Criteria9BasicTask6Action21EvalRetrieveParameterC1Ev @2473
    _ZN14WorkflowEngine8Criteria9BasicTask6Action21EvalRetrieveParameterD0Ev @2474
    _ZN14WorkflowEngine8Criteria9BasicTask6Action21EvalRetrieveParameterD1Ev @2475
    _ZN14WorkflowEngine8Criteria9BasicTask7Process11ProcessTask7executeEv @2476
    _ZN14WorkflowEngine8Criteria9BasicTask7Process11ProcessTaskC1EPN11DataManager8Panorama17WorkflowProcesses15WorkflowProcessEPNS6_8ActivityEi @2477
    _ZN14WorkflowEngine8Criteria9BasicTask7Process11ProcessTaskC2EPN11DataManager8Panorama17WorkflowProcesses15WorkflowProcessEPNS6_8ActivityEi @2478
    _ZN14WorkflowEngine8Criteria9BasicTask7Process11ProcessTaskD0Ev @2479
    _ZN14WorkflowEngine8Criteria9BasicTask7Process11ProcessTaskD1Ev @2480
    _ZN14WorkflowEngine8Criteria9BasicTask7Process11ProcessTaskD2Ev @2481
    _ZN14WorkflowEngine8Criteria9BasicTask7Process15SubFlowExitTask7executeEv @2482
    _ZN14WorkflowEngine8Criteria9BasicTask7Process15SubFlowExitTaskC1EPN11DataManager8Panorama17WorkflowProcesses15WorkflowProcessEPNS6_8ActivityEi @2483
    _ZN14WorkflowEngine8Criteria9BasicTask7Process15SubFlowExitTaskC2EPN11DataManager8Panorama17WorkflowProcesses15WorkflowProcessEPNS6_8ActivityEi @2484
    _ZN14WorkflowEngine8Criteria9BasicTask7Process15SubFlowExitTaskD0Ev @2485
    _ZN14WorkflowEngine8Criteria9BasicTask7Process15SubFlowExitTaskD1Ev @2486
    _ZN14WorkflowEngine8Criteria9BasicTask7Process15SubFlowExitTaskD2Ev @2487
    _ZN14WorkflowEngine8Criteria9BasicTask7Process6Action13ProcessAction14evaluateActionEv @2488
    _ZN14WorkflowEngine8Criteria9BasicTask7Process6Action13ProcessActionC1EPN11DataManager8Panorama17WorkflowProcesses15WorkflowProcessEPNS7_8ActivityEi @2489
    _ZN14WorkflowEngine8Criteria9BasicTask7Process6Action13ProcessActionC2EPN11DataManager8Panorama17WorkflowProcesses15WorkflowProcessEPNS7_8ActivityEi @2490
    _ZN14WorkflowEngine8Criteria9BasicTask7Process6Action13ProcessActionD0Ev @2491
    _ZN14WorkflowEngine8Criteria9BasicTask7Process6Action13ProcessActionD1Ev @2492
    _ZN14WorkflowEngine8Criteria9BasicTask7Process6Action13ProcessActionD2Ev @2493
    _ZN14WorkflowEngine8Criteria9BasicTask7Process6Action17SubFlowExitAction14evaluateActionEv @2494
    _ZN14WorkflowEngine8Criteria9BasicTask7Process6Action17SubFlowExitAction6actionERSs @2495
    _ZN14WorkflowEngine8Criteria9BasicTask7Process6Action17SubFlowExitActionC1EPN11DataManager8Panorama17WorkflowProcesses15WorkflowProcessEPNS7_8ActivityEi @2496
    _ZN14WorkflowEngine8Criteria9BasicTask7Process6Action17SubFlowExitActionC2EPN11DataManager8Panorama17WorkflowProcesses15WorkflowProcessEPNS7_8ActivityEi @2497
    _ZN14WorkflowEngine8Criteria9BasicTask7Process6Action17SubFlowExitActionD0Ev @2498
    _ZN14WorkflowEngine8Criteria9BasicTask7Process6Action17SubFlowExitActionD1Ev @2499
    _ZN14WorkflowEngine8Criteria9BasicTask7Process6Action17SubFlowExitActionD2Ev @2500
    _ZN14WorkflowEngine8Criteria9BasicTask7Process6Action19ProcessActionAttach16MigrateAttributeEPNS0_4Core8WorkflowERN11DataManager8Panorama20WorkflowRelevantData10AttributesESC_ @2501
    _ZN14WorkflowEngine8Criteria9BasicTask7Process6Action19ProcessActionAttach6actionERSs @2502
    _ZN14WorkflowEngine8Criteria9BasicTask7Process6Action19ProcessActionAttachC1EPN11DataManager8Panorama17WorkflowProcesses15WorkflowProcessEPNS7_8ActivityEib @2503
    _ZN14WorkflowEngine8Criteria9BasicTask7Process6Action19ProcessActionAttachC2EPN11DataManager8Panorama17WorkflowProcesses15WorkflowProcessEPNS7_8ActivityEib @2504
    _ZN14WorkflowEngine8Criteria9BasicTask7Process6Action19ProcessActionAttachD0Ev @2505
    _ZN14WorkflowEngine8Criteria9BasicTask7Process6Action19ProcessActionAttachD1Ev @2506
    _ZN14WorkflowEngine8Criteria9BasicTask7Process6Action19ProcessActionAttachD2Ev @2507
    _ZN14WorkflowEngine8Criteria9BasicTask8BaseTask11writeReportENS2_10TaskStatusE @2508
    _ZN14WorkflowEngine8Criteria9BasicTask8BaseTask12autoAssignToEv @2509
    _ZN14WorkflowEngine8Criteria9BasicTask8BaseTask12getAttributeERKSs @2510
    _ZN14WorkflowEngine8Criteria9BasicTask8BaseTask13compileReportERN11DataManager8Panorama17WorkflowProcesses6ReportE @2511
    _ZN14WorkflowEngine8Criteria9BasicTask8BaseTask16appendVarContextEv @2512
    _ZN14WorkflowEngine8Criteria9BasicTask8BaseTask21getEvaluatedParameterERKSsS4_ @2513
    _ZN14WorkflowEngine8Criteria9BasicTask8BaseTask3fixEv @2514
    _ZN14WorkflowEngine8Criteria9BasicTask8BaseTask6assignEv @2515
    _ZN14WorkflowEngine8Criteria9BasicTask8BaseTask7executeEv @2516
    _ZN14WorkflowEngine8Criteria9BasicTask8BaseTask7releaseEv @2517
    _ZN14WorkflowEngine8Criteria9BasicTask8BaseTask8completeEi @2518
    _ZN14WorkflowEngine8Criteria9BasicTask8BaseTask8delegateEv @2519
    _ZN14WorkflowEngine8Criteria9BasicTask8BaseTaskC1EPN11DataManager8Panorama17WorkflowProcesses15WorkflowProcessEPNS5_8ActivityE @2520
    _ZN14WorkflowEngine8Criteria9BasicTask8BaseTaskC2EPN11DataManager8Panorama17WorkflowProcesses15WorkflowProcessEPNS5_8ActivityE @2521
    _ZN14WorkflowEngine8Criteria9BasicTask8BaseTaskD0Ev @2522
    _ZN14WorkflowEngine8Criteria9BasicTask8BaseTaskD1Ev @2523
    _ZN14WorkflowEngine8Criteria9BasicTask8BaseTaskD2Ev @2524
    _ZN14WorkflowEngine8Criteria9BasicTask9BeginTask7executeEv @2525
    _ZN14WorkflowEngine8Criteria9BasicTask9BeginTaskC1EPN11DataManager8Panorama17WorkflowProcesses15WorkflowProcessEPNS5_8ActivityE @2526
    _ZN14WorkflowEngine8Criteria9BasicTask9BeginTaskC2EPN11DataManager8Panorama17WorkflowProcesses15WorkflowProcessEPNS5_8ActivityE @2527
    _ZN14WorkflowEngine8Criteria9BasicTask9BeginTaskD0Ev @2528
    _ZN14WorkflowEngine8Criteria9BasicTask9BeginTaskD1Ev @2529
    _ZN14WorkflowEngine8Criteria9BasicTask9BeginTaskD2Ev @2530
    _ZN14WorkflowEngine8Criteria9BasicTask9Condition13ConditionTask7executeEv @2531
    _ZN14WorkflowEngine8Criteria9BasicTask9Condition13ConditionTaskC1EPN11DataManager8Panorama17WorkflowProcesses15WorkflowProcessEPNS6_8ActivityE @2532
    _ZN14WorkflowEngine8Criteria9BasicTask9Condition13ConditionTaskC2EPN11DataManager8Panorama17WorkflowProcesses15WorkflowProcessEPNS6_8ActivityE @2533
    _ZN14WorkflowEngine8Criteria9BasicTask9Condition13ConditionTaskD0Ev @2534
    _ZN14WorkflowEngine8Criteria9BasicTask9Condition13ConditionTaskD1Ev @2535
    _ZN14WorkflowEngine8Criteria9BasicTask9Condition13ConditionTaskD2Ev @2536
    _ZN14WorkflowEngine8Criteria9BasicTask9Condition6Action15ConditionAction14evaluateActionEv @2537
    _ZN14WorkflowEngine8Criteria9BasicTask9Condition6Action15ConditionActionC1EPN11DataManager8Panorama17WorkflowProcesses15WorkflowProcessEPNS7_8ActivityE @2538
    _ZN14WorkflowEngine8Criteria9BasicTask9Condition6Action15ConditionActionC2EPN11DataManager8Panorama17WorkflowProcesses15WorkflowProcessEPNS7_8ActivityE @2539
    _ZN14WorkflowEngine8Criteria9BasicTask9Condition6Action15ConditionActionD0Ev @2540
    _ZN14WorkflowEngine8Criteria9BasicTask9Condition6Action15ConditionActionD1Ev @2541
    _ZN14WorkflowEngine8Criteria9BasicTask9Condition6Action15ConditionActionD2Ev @2542
    _ZN14WorkflowEngine8Criteria9BasicTask9Condition6Action20EvalExpressionAction14evaluateActionEv @2543
    _ZN14WorkflowEngine8Criteria9BasicTask9Condition6Action20EvalExpressionAction24DEFAULT_RESULT_ATTRIBUTEE @2544 DATA
    _ZN14WorkflowEngine8Criteria9BasicTask9Condition6Action20EvalExpressionAction6actionERSs @2545
    _ZN14WorkflowEngine8Criteria9BasicTask9Condition6Action20EvalExpressionActionC1EPN11DataManager8Panorama17WorkflowProcesses15WorkflowProcessEPNS7_8ActivityE @2546
    _ZN14WorkflowEngine8Criteria9BasicTask9Condition6Action20EvalExpressionActionC2EPN11DataManager8Panorama17WorkflowProcesses15WorkflowProcessEPNS7_8ActivityE @2547
    _ZN14WorkflowEngine8Criteria9BasicTask9Condition6Action20EvalExpressionActionD0Ev @2548
    _ZN14WorkflowEngine8Criteria9BasicTask9Condition6Action20EvalExpressionActionD1Ev @2549
    _ZN14WorkflowEngine8Criteria9BasicTask9Condition6Action20EvalExpressionActionD2Ev @2550
    _ZN14WorkflowEngine8Criteria9BasicTask9Iteration6Action15IterationAction14evaluateActionEv @2551
    _ZN14WorkflowEngine8Criteria9BasicTask9Iteration6Action15IterationAction19LOOP_STEP_ATTRIBUTEE @2552 DATA
    _ZN14WorkflowEngine8Criteria9BasicTask9Iteration6Action15IterationAction20LOOP_START_ATTRIBUTEE @2553 DATA
    _ZN14WorkflowEngine8Criteria9BasicTask9Iteration6Action15IterationActionC1EPN11DataManager8Panorama17WorkflowProcesses15WorkflowProcessEPNS7_8ActivityE @2554
    _ZN14WorkflowEngine8Criteria9BasicTask9Iteration6Action15IterationActionC2EPN11DataManager8Panorama17WorkflowProcesses15WorkflowProcessEPNS7_8ActivityE @2555
    _ZN14WorkflowEngine8Criteria9BasicTask9Iteration6Action15IterationActionD0Ev @2556
    _ZN14WorkflowEngine8Criteria9BasicTask9Iteration6Action15IterationActionD1Ev @2557
    _ZN14WorkflowEngine8Criteria9BasicTask9Iteration6Action15IterationActionD2Ev @2558
    _ZN14WorkflowEngine8Criteria9BasicTask9Iteration6Action22IterationCounterAction19MAX_LOOPS_ATTRIBUTEE @2559 DATA
    _ZN14WorkflowEngine8Criteria9BasicTask9Iteration6Action22IterationCounterAction6actionERSs @2560
    _ZN14WorkflowEngine8Criteria9BasicTask9Iteration6Action22IterationCounterActionC1EPN11DataManager8Panorama17WorkflowProcesses15WorkflowProcessEPNS7_8ActivityE @2561
    _ZN14WorkflowEngine8Criteria9BasicTask9Iteration6Action22IterationCounterActionC2EPN11DataManager8Panorama17WorkflowProcesses15WorkflowProcessEPNS7_8ActivityE @2562
    _ZN14WorkflowEngine8Criteria9BasicTask9Iteration6Action22IterationCounterActionD0Ev @2563
    _ZN14WorkflowEngine8Criteria9BasicTask9Iteration6Action22IterationCounterActionD1Ev @2564
    _ZN14WorkflowEngine8Criteria9BasicTask9Iteration6Action22IterationCounterActionD2Ev @2565
    _ZN14WorkflowEngine8Criteria9BasicTask9Iteration6Action25IterationExpressionAction14evaluateActionEv @2566
    _ZN14WorkflowEngine8Criteria9BasicTask9Iteration6Action25IterationExpressionAction6actionERSs @2567
    _ZN14WorkflowEngine8Criteria9BasicTask9Iteration6Action25IterationExpressionActionC1EPN11DataManager8Panorama17WorkflowProcesses15WorkflowProcessEPNS7_8ActivityE @2568
    _ZN14WorkflowEngine8Criteria9BasicTask9Iteration6Action25IterationExpressionActionC2EPN11DataManager8Panorama17WorkflowProcesses15WorkflowProcessEPNS7_8ActivityE @2569
    _ZN14WorkflowEngine8Criteria9BasicTask9Iteration6Action25IterationExpressionActionD0Ev @2570
    _ZN14WorkflowEngine8Criteria9BasicTask9Iteration6Action25IterationExpressionActionD1Ev @2571
    _ZN14WorkflowEngine8Criteria9BasicTask9Iteration6Action25IterationExpressionActionD2Ev @2572
    _ZN14WorkflowEngine8Criteria9BasicTask9Iteration8LoopTask7executeEv @2573
    _ZN14WorkflowEngine8Criteria9BasicTask9Iteration8LoopTaskC1EPN11DataManager8Panorama17WorkflowProcesses15WorkflowProcessEPNS6_8ActivityE @2574
    _ZN14WorkflowEngine8Criteria9BasicTask9Iteration8LoopTaskC2EPN11DataManager8Panorama17WorkflowProcesses15WorkflowProcessEPNS6_8ActivityE @2575
    _ZN14WorkflowEngine8Criteria9BasicTask9Iteration8LoopTaskD0Ev @2576
    _ZN14WorkflowEngine8Criteria9BasicTask9Iteration8LoopTaskD1Ev @2577
    _ZN14WorkflowEngine8Criteria9BasicTask9Iteration8LoopTaskD2Ev @2578
    _ZN14WorkflowEngine8Criteria9BasicTask9Primitive13PrimitiveTask7executeEv @2579
    _ZN14WorkflowEngine8Criteria9BasicTask9Primitive13PrimitiveTaskC1EPN11DataManager8Panorama17WorkflowProcesses15WorkflowProcessEPNS6_8ActivityE @2580
    _ZN14WorkflowEngine8Criteria9BasicTask9Primitive13PrimitiveTaskC2EPN11DataManager8Panorama17WorkflowProcesses15WorkflowProcessEPNS6_8ActivityE @2581
    _ZN14WorkflowEngine8Criteria9BasicTask9Primitive13PrimitiveTaskD0Ev @2582
    _ZN14WorkflowEngine8Criteria9BasicTask9Primitive13PrimitiveTaskD1Ev @2583
    _ZN14WorkflowEngine8Criteria9BasicTask9Primitive13PrimitiveTaskD2Ev @2584
    _ZN14WorkflowEngine8Criteria9BasicTask9Primitive6Action15PrimitiveAction14evaluateActionEv @2585
    _ZN14WorkflowEngine8Criteria9BasicTask9Primitive6Action15PrimitiveAction24DEFAULT_RESULT_ATTRIBUTEE @2586 DATA
    _ZN14WorkflowEngine8Criteria9BasicTask9Primitive6Action15PrimitiveActionC1EPN11DataManager8Panorama17WorkflowProcesses15WorkflowProcessEPNS7_8ActivityE @2587
    _ZN14WorkflowEngine8Criteria9BasicTask9Primitive6Action15PrimitiveActionC2EPN11DataManager8Panorama17WorkflowProcesses15WorkflowProcessEPNS7_8ActivityE @2588
    _ZN14WorkflowEngine8Criteria9BasicTask9Primitive6Action15PrimitiveActionD0Ev @2589
    _ZN14WorkflowEngine8Criteria9BasicTask9Primitive6Action15PrimitiveActionD1Ev @2590
    _ZN14WorkflowEngine8Criteria9BasicTask9Primitive6Action15PrimitiveActionD2Ev @2591
    _ZN14WorkflowEngine8Criteria9BasicTask9Primitive6Action21PrimitiveActionAttach14evaluateActionEv @2592
    _ZN14WorkflowEngine8Criteria9BasicTask9Primitive6Action21PrimitiveActionAttach6actionERSs @2593
    _ZN14WorkflowEngine8Criteria9BasicTask9Primitive6Action21PrimitiveActionAttachC1EPN11DataManager8Panorama17WorkflowProcesses15WorkflowProcessEPNS7_8ActivityE @2594
    _ZN14WorkflowEngine8Criteria9BasicTask9Primitive6Action21PrimitiveActionAttachC2EPN11DataManager8Panorama17WorkflowProcesses15WorkflowProcessEPNS7_8ActivityE @2595
    _ZN14WorkflowEngine8Criteria9BasicTask9Primitive6Action21PrimitiveActionAttachD0Ev @2596
    _ZN14WorkflowEngine8Criteria9BasicTask9Primitive6Action21PrimitiveActionAttachD1Ev @2597
    _ZN14WorkflowEngine8Criteria9BasicTask9Primitive6Action21PrimitiveActionAttachD2Ev @2598
    _ZN14WorkflowEngine8Criteria9BasicTask9Primitive6Action21PrimitiveActionDetach14evaluateActionEv @2599
    _ZN14WorkflowEngine8Criteria9BasicTask9Primitive6Action21PrimitiveActionDetach6actionERSs @2600
    _ZN14WorkflowEngine8Criteria9BasicTask9Primitive6Action21PrimitiveActionDetachC1EPN11DataManager8Panorama17WorkflowProcesses15WorkflowProcessEPNS7_8ActivityE @2601
    _ZN14WorkflowEngine8Criteria9BasicTask9Primitive6Action21PrimitiveActionDetachC2EPN11DataManager8Panorama17WorkflowProcesses15WorkflowProcessEPNS7_8ActivityE @2602
    _ZN14WorkflowEngine8Criteria9BasicTask9Primitive6Action21PrimitiveActionDetachD0Ev @2603
    _ZN14WorkflowEngine8Criteria9BasicTask9Primitive6Action21PrimitiveActionDetachD1Ev @2604
    _ZN14WorkflowEngine8Criteria9BasicTask9Primitive6Action21PrimitiveActionDetachD2Ev @2605
    _ZN14WorkflowEngine8Criteria9DataTypes11NaturalType10notEqualToERKSsS4_ @2606
    _ZN14WorkflowEngine8Criteria9DataTypes11NaturalType11greaterThanERKSsS4_ @2607
    _ZN14WorkflowEngine8Criteria9DataTypes11NaturalType15lessThanEqualToERKSsS4_ @2608
    _ZN14WorkflowEngine8Criteria9DataTypes11NaturalType18greaterThanEqualToERKSsS4_ @2609
    _ZN14WorkflowEngine8Criteria9DataTypes11NaturalType7equalToERKSsS4_ @2610
    _ZN14WorkflowEngine8Criteria9DataTypes11NaturalType8lessThanERKSsS4_ @2611
    _ZN14WorkflowEngine8Criteria9DataTypes11NaturalTypeC1EPN11DataManager8Panorama17WorkflowDataTypes8DataTypeE @2612
    _ZN14WorkflowEngine8Criteria9DataTypes11NaturalTypeC2EPN11DataManager8Panorama17WorkflowDataTypes8DataTypeE @2613
    _ZN14WorkflowEngine8Criteria9DataTypes11NaturalTypeD0Ev @2614
    _ZN14WorkflowEngine8Criteria9DataTypes11NaturalTypeD1Ev @2615
    _ZN14WorkflowEngine8Criteria9DataTypes11NaturalTypeD2Ev @2616
    _ZN14WorkflowEngine8Criteria9DataTypes9IDataType9sGetValueERKSs @2617
    _ZN14WorkflowEngine8Criteria9DataTypes9IDataTypeC1EPN11DataManager8Panorama17WorkflowDataTypes8DataTypeE @2618
    _ZN14WorkflowEngine8Criteria9DataTypes9IDataTypeC2EPN11DataManager8Panorama17WorkflowDataTypes8DataTypeE @2619
    _ZN14WorkflowEngine8Criteria9DataTypes9IDataTypeD0Ev @2620
    _ZN14WorkflowEngine8Criteria9DataTypes9IDataTypeD1Ev @2621
    _ZN14WorkflowEngine8Criteria9DataTypes9IDataTypeD2Ev @2622
    _ZN3bOS11Collections10Collection9nots_sizeEv @2623
    _ZN3bOS11Collections10CollectionaSERKS1_ @2624
    _ZN3bOS11Collections15CollectionEntryC2Ev @2625
    _ZN3bOS11Collections15CollectionEntryD2Ev @2626
    _ZN3bOS3SQL11SQLCommands2atEj @2627
    _ZN3bOS3SQL11SQLCommands4sizeEv @2628
    _ZN3bOS3SQL18SQLSmartConnection17isConnectionOwnerEv @2629
    _ZN3bOS3SQL8SQLTable12getSQLTablesEv @2630
    _ZN3bOS3SQL8SQLTableaSERKS1_ @2631
    _ZN3bOS3XML12XMLExceptionC1ERKS1_ @2632
    _ZN3bOS3XML12XMLExceptionD0Ev @2633
    _ZN3bOS3XML12XMLExceptionD1Ev @2634
    _ZN3bOS3XML4Data12XMLObjectSetaSERKS2_ @2635
    _ZN3bOS3XML4Data7XMLFile11getFileNameEv @2636
    _ZN3bOS3XML4Data7XMLFile11getSequenceEv @2637
    _ZN3bOS3XML4Data7XMLFile11setFileNameERKSs @2638
    _ZN3bOS3XML4Data7XMLFile11setSequenceEl @2639
    _ZN3bOS3XML4Data9XMLObjectC2ERKS2_ @2640
    _ZN3bOS3XML4Data9XMLObjectaSERKS2_ @2641
    _ZN3bOS4Core11SmartLockerINS0_5MutexEEC1ERS2_ @2642
    _ZN3bOS4Core11SmartLockerINS0_5MutexEED0Ev @2643
    _ZN3bOS4Core11SmartLockerINS0_5MutexEED1Ev @2644
    _ZN3bOS4Core5MutexaSERKS1_ @2645
    _ZN3bOS5Utils4DateaSERKS1_ @2646
    _ZN3bOS5Utils4TimeaSERKS1_ @2647
    _ZN3bOS5Utils8DateTimeaSERKS1_ @2648
    _ZN3bOS9Exception13BaseExceptionC2ERKS1_ @2649
    _ZN3bOS9Exception21NullArgumentExceptionC1Ev @2650
    _ZN3bOS9Exception21NullArgumentExceptionD0Ev @2651
    _ZN3bOS9Exception21NullArgumentExceptionD1Ev @2652
    _ZN9__gnu_cxx13new_allocatorIN14WorkflowEngine14WorkflowActionEE10deallocateEPS2_j @2653
    _ZN9__gnu_cxx13new_allocatorIN14WorkflowEngine14WorkflowActionEE7destroyIS2_EEvPT_ @2654
    _ZN9__gnu_cxx13new_allocatorIN14WorkflowEngine14WorkflowActionEE8allocateEjPKv @2655
    _ZN9__gnu_cxx13new_allocatorIN14WorkflowEngine14WorkflowActionEE9constructIS2_JS2_EEEvPT_DpOT0_ @2656
    _ZN9__gnu_cxx13new_allocatorIN14WorkflowEngine14WorkflowActionEEC2Ev @2657
    _ZN9__gnu_cxx13new_allocatorIN14WorkflowEngine14WorkflowActionEED2Ev @2658
    _ZN9__gnu_cxx13new_allocatorIPN11DataManager8DataBase14ProcessHandlerEE10deallocateEPS4_j @2659
    _ZN9__gnu_cxx13new_allocatorIPN11DataManager8DataBase14ProcessHandlerEE7destroyIS4_EEvPT_ @2660
    _ZN9__gnu_cxx13new_allocatorIPN11DataManager8DataBase14ProcessHandlerEE8allocateEjPKv @2661
    _ZN9__gnu_cxx13new_allocatorIPN11DataManager8DataBase14ProcessHandlerEE9constructIS4_JS4_EEEvPT_DpOT0_ @2662
    _ZN9__gnu_cxx13new_allocatorIPN11DataManager8DataBase14ProcessHandlerEEC2Ev @2663
    _ZN9__gnu_cxx13new_allocatorIPN11DataManager8DataBase14ProcessHandlerEED2Ev @2664
    _ZN9__gnu_cxx13new_allocatorIPN11DataManager8DataBase16DataBaseTemplateEE10deallocateEPS4_j @2665
    _ZN9__gnu_cxx13new_allocatorIPN11DataManager8DataBase16DataBaseTemplateEE7destroyIS4_EEvPT_ @2666
    _ZN9__gnu_cxx13new_allocatorIPN11DataManager8DataBase16DataBaseTemplateEE8allocateEjPKv @2667
    _ZN9__gnu_cxx13new_allocatorIPN11DataManager8DataBase16DataBaseTemplateEE9constructIS4_JRKS4_EEEvPT_DpOT0_ @2668
    _ZN9__gnu_cxx13new_allocatorIPN11DataManager8DataBase16DataBaseTemplateEEC2Ev @2669
    _ZN9__gnu_cxx13new_allocatorIPN11DataManager8DataBase16DataBaseTemplateEED2Ev @2670
    _ZN9__gnu_cxx13new_allocatorIPN11DataManager8Panorama17WorkflowProcesses15WorkflowProcessEE10deallocateEPS5_j @2671
    _ZN9__gnu_cxx13new_allocatorIPN11DataManager8Panorama17WorkflowProcesses15WorkflowProcessEE7destroyIS5_EEvPT_ @2672
    _ZN9__gnu_cxx13new_allocatorIPN11DataManager8Panorama17WorkflowProcesses15WorkflowProcessEE8allocateEjPKv @2673
    _ZN9__gnu_cxx13new_allocatorIPN11DataManager8Panorama17WorkflowProcesses15WorkflowProcessEE9constructIS5_JRKS5_EEEvPT_DpOT0_ @2674
    _ZN9__gnu_cxx13new_allocatorIPN11DataManager8Panorama17WorkflowProcesses15WorkflowProcessEEC2Ev @2675
    _ZN9__gnu_cxx13new_allocatorIPN11DataManager8Panorama17WorkflowProcesses15WorkflowProcessEED2Ev @2676
    _ZN9__gnu_cxx13new_allocatorIPN11DataManager8Panorama17WorkflowProcesses8ActivityEE10deallocateEPS5_j @2677
    _ZN9__gnu_cxx13new_allocatorIPN11DataManager8Panorama17WorkflowProcesses8ActivityEE7destroyIS5_EEvPT_ @2678
    _ZN9__gnu_cxx13new_allocatorIPN11DataManager8Panorama17WorkflowProcesses8ActivityEE8allocateEjPKv @2679
    _ZN9__gnu_cxx13new_allocatorIPN11DataManager8Panorama17WorkflowProcesses8ActivityEE9constructIS5_JRKS5_EEEvPT_DpOT0_ @2680
    _ZN9__gnu_cxx13new_allocatorIPN11DataManager8Panorama17WorkflowProcesses8ActivityEEC2Ev @2681
    _ZN9__gnu_cxx13new_allocatorIPN11DataManager8Panorama17WorkflowProcesses8ActivityEED2Ev @2682
    _ZN9__gnu_cxx13new_allocatorIPN14WorkflowEngine6Idioma13ItemInterfaceEE10deallocateEPS4_j @2683
    _ZN9__gnu_cxx13new_allocatorIPN14WorkflowEngine6Idioma13ItemInterfaceEE7destroyIS4_EEvPT_ @2684
    _ZN9__gnu_cxx13new_allocatorIPN14WorkflowEngine6Idioma13ItemInterfaceEE8allocateEjPKv @2685
    _ZN9__gnu_cxx13new_allocatorIPN14WorkflowEngine6Idioma13ItemInterfaceEE9constructIS4_JS4_EEEvPT_DpOT0_ @2686
    _ZN9__gnu_cxx13new_allocatorIPN14WorkflowEngine6Idioma13ItemInterfaceEEC2Ev @2687
    _ZN9__gnu_cxx13new_allocatorIPN14WorkflowEngine6Idioma13ItemInterfaceEED2Ev @2688
    _ZN9__gnu_cxx13new_allocatorIPN14WorkflowEngine6Idioma9ParameterEE10deallocateEPS4_j @2689
    _ZN9__gnu_cxx13new_allocatorIPN14WorkflowEngine6Idioma9ParameterEE7destroyIS4_EEvPT_ @2690
    _ZN9__gnu_cxx13new_allocatorIPN14WorkflowEngine6Idioma9ParameterEE8allocateEjPKv @2691
    _ZN9__gnu_cxx13new_allocatorIPN14WorkflowEngine6Idioma9ParameterEE9constructIS4_JRKS4_EEEvPT_DpOT0_ @2692
    _ZN9__gnu_cxx13new_allocatorIPN14WorkflowEngine6Idioma9ParameterEEC2Ev @2693
    _ZN9__gnu_cxx13new_allocatorIPN14WorkflowEngine6Idioma9ParameterEED2Ev @2694
    _ZN9__gnu_cxx13new_allocatorIPN14WorkflowEngine8Criteria4Core14WorkFlowThreadEE10deallocateEPS5_j @2695
    _ZN9__gnu_cxx13new_allocatorIPN14WorkflowEngine8Criteria4Core14WorkFlowThreadEE7destroyIS5_EEvPT_ @2696
    _ZN9__gnu_cxx13new_allocatorIPN14WorkflowEngine8Criteria4Core14WorkFlowThreadEE8allocateEjPKv @2697
    _ZN9__gnu_cxx13new_allocatorIPN14WorkflowEngine8Criteria4Core14WorkFlowThreadEE9constructIS5_JRKS5_EEEvPT_DpOT0_ @2698
    _ZN9__gnu_cxx13new_allocatorIPN14WorkflowEngine8Criteria4Core14WorkFlowThreadEEC2Ev @2699
    _ZN9__gnu_cxx13new_allocatorIPN14WorkflowEngine8Criteria4Core14WorkFlowThreadEED2Ev @2700
    _ZN9__gnu_cxx13new_allocatorIPN14WorkflowEngine8Criteria4Core9IWorkflowEE10deallocateEPS5_j @2701
    _ZN9__gnu_cxx13new_allocatorIPN14WorkflowEngine8Criteria4Core9IWorkflowEE7destroyIS5_EEvPT_ @2702
    _ZN9__gnu_cxx13new_allocatorIPN14WorkflowEngine8Criteria4Core9IWorkflowEE8allocateEjPKv @2703
    _ZN9__gnu_cxx13new_allocatorIPN14WorkflowEngine8Criteria4Core9IWorkflowEE9constructIS5_JRKS5_EEEvPT_DpOT0_ @2704
    _ZN9__gnu_cxx13new_allocatorIPN14WorkflowEngine8Criteria4Core9IWorkflowEEC2ERKS6_ @2705
    _ZN9__gnu_cxx13new_allocatorIPN14WorkflowEngine8Criteria4Core9IWorkflowEEC2Ev @2706
    _ZN9__gnu_cxx13new_allocatorIPN14WorkflowEngine8Criteria4Core9IWorkflowEED2Ev @2707
    _ZN9__gnu_cxx13new_allocatorIPN14WorkflowEngine8Criteria5Event13EventListenerEE10deallocateEPS5_j @2708
    _ZN9__gnu_cxx13new_allocatorIPN14WorkflowEngine8Criteria5Event13EventListenerEE7destroyIS5_EEvPT_ @2709
    _ZN9__gnu_cxx13new_allocatorIPN14WorkflowEngine8Criteria5Event13EventListenerEE8allocateEjPKv @2710
    _ZN9__gnu_cxx13new_allocatorIPN14WorkflowEngine8Criteria5Event13EventListenerEE9constructIS5_JRKS5_EEEvPT_DpOT0_ @2711
    _ZN9__gnu_cxx13new_allocatorIPN14WorkflowEngine8Criteria5Event13EventListenerEEC2Ev @2712
    _ZN9__gnu_cxx13new_allocatorIPN14WorkflowEngine8Criteria5Event13EventListenerEED2Ev @2713
    _ZN9__gnu_cxx13new_allocatorIPN3bOS11Collections15CollectionEntryEE10deallocateEPS4_j @2714
    _ZN9__gnu_cxx13new_allocatorIPN3bOS11Collections15CollectionEntryEE8allocateEjPKv @2715
    _ZN9__gnu_cxx13new_allocatorIPN3bOS3SQL8SQLTableEE10deallocateEPS4_j @2716
    _ZN9__gnu_cxx13new_allocatorIPN3bOS3SQL8SQLTableEE7destroyIS4_EEvPT_ @2717
    _ZN9__gnu_cxx13new_allocatorIPN3bOS3SQL8SQLTableEE8allocateEjPKv @2718
    _ZN9__gnu_cxx13new_allocatorIPN3bOS3SQL8SQLTableEE9constructIS4_JS4_EEEvPT_DpOT0_ @2719
    _ZN9__gnu_cxx13new_allocatorIPN3bOS3SQL8SQLTableEEC2ERKS5_ @2720
    _ZN9__gnu_cxx13new_allocatorIPN3bOS3SQL8SQLTableEED2Ev @2721
    _ZN9__gnu_cxx13new_allocatorISsE10deallocateEPSsj @2722
    _ZN9__gnu_cxx13new_allocatorISsE7destroyISsEEvPT_ @2723
    _ZN9__gnu_cxx13new_allocatorISsE8allocateEjPKv @2724
    _ZN9__gnu_cxx13new_allocatorISsE9constructISsJRKSsEEEvPT_DpOT0_ @2725
    _ZN9__gnu_cxx13new_allocatorISsE9constructISsJSsEEEvPT_DpOT0_ @2726
    _ZN9__gnu_cxx13new_allocatorISsEC2ERKS1_ @2727
    _ZN9__gnu_cxx13new_allocatorISsEC2Ev @2728
    _ZN9__gnu_cxx13new_allocatorISsED2Ev @2729
    _ZN9__gnu_cxx14__alloc_traitsISaIPN14WorkflowEngine8Criteria4Core9IWorkflowEEE17_S_select_on_copyERKS6_ @2730
    _ZN9__gnu_cxx14__alloc_traitsISaIPN3bOS11Collections15CollectionEntryEEE15_S_always_equalEv @2731
    _ZN9__gnu_cxx14__alloc_traitsISaIPN3bOS11Collections15CollectionEntryEEE27_S_propagate_on_copy_assignEv @2732
    _ZN9__gnu_cxx14__alloc_traitsISaIPN3bOS3SQL8SQLTableEEE15_S_always_equalEv @2733
    _ZN9__gnu_cxx14__alloc_traitsISaIPN3bOS3SQL8SQLTableEEE17_S_select_on_copyERKS5_ @2734
    _ZN9__gnu_cxx14__alloc_traitsISaIPN3bOS3SQL8SQLTableEEE27_S_propagate_on_copy_assignEv @2735
    _ZN9__gnu_cxx14__alloc_traitsISaISsEE17_S_select_on_copyERKS1_ @2736
    _ZN9__gnu_cxx17__normal_iteratorIPKPN11DataManager8DataBase14ProcessHandlerESt6vectorIS4_SaIS4_EEEC1ERKS6_ @2737
    _ZN9__gnu_cxx17__normal_iteratorIPKPN11DataManager8DataBase14ProcessHandlerESt6vectorIS4_SaIS4_EEEC1IPS4_EERKNS0_IT_NS_11__enable_ifIXsrSt10__are_sameISD_SC_E7__valueES9_E6__typeEEE @2738
    _ZN9__gnu_cxx17__normal_iteratorIPKPN14WorkflowEngine8Criteria4Core9IWorkflowESt6vectorIS5_SaIS5_EEEC1ERKS7_ @2739
    _ZN9__gnu_cxx17__normal_iteratorIPKPN14WorkflowEngine8Criteria4Core9IWorkflowESt6vectorIS5_SaIS5_EEEC1IPS5_EERKNS0_IT_NS_11__enable_ifIXsrSt10__are_sameISE_SD_E7__valueESA_E6__typeEEE @2740
    _ZN9__gnu_cxx17__normal_iteratorIPKPN3bOS11Collections15CollectionEntryESt6vectorIS4_SaIS4_EEEC1ERKS6_ @2741
    _ZN9__gnu_cxx17__normal_iteratorIPKPN3bOS3SQL8SQLTableESt6vectorIS4_SaIS4_EEEC1ERKS6_ @2742
    _ZN9__gnu_cxx17__normal_iteratorIPKSsSt6vectorISsSaISsEEEC1ERKS2_ @2743
    _ZN9__gnu_cxx17__normal_iteratorIPKSsSt6vectorISsSaISsEEEppEv @2744
    _ZN9__gnu_cxx17__normal_iteratorIPPN11DataManager8DataBase14ProcessHandlerESt6vectorIS4_SaIS4_EEEC1ERKS5_ @2745
    _ZN9__gnu_cxx17__normal_iteratorIPPN11DataManager8DataBase14ProcessHandlerESt6vectorIS4_SaIS4_EEEppEi @2746
    _ZN9__gnu_cxx17__normal_iteratorIPPN14WorkflowEngine6Idioma13ItemInterfaceESt6vectorIS4_SaIS4_EEEC1ERKS5_ @2747
    _ZN9__gnu_cxx17__normal_iteratorIPPN14WorkflowEngine6Idioma13ItemInterfaceESt6vectorIS4_SaIS4_EEEppEi @2748
    _ZN9__gnu_cxx17__normal_iteratorIPPN14WorkflowEngine6Idioma9ParameterESt6vectorIS4_SaIS4_EEEC1ERKS5_ @2749
    _ZN9__gnu_cxx17__normal_iteratorIPPN14WorkflowEngine6Idioma9ParameterESt6vectorIS4_SaIS4_EEEppEi @2750
    _ZN9__gnu_cxx17__normal_iteratorIPPN14WorkflowEngine8Criteria4Core14WorkFlowThreadESt6vectorIS5_SaIS5_EEEC1ERKS6_ @2751
    _ZN9__gnu_cxx17__normal_iteratorIPPN14WorkflowEngine8Criteria4Core14WorkFlowThreadESt6vectorIS5_SaIS5_EEEppEi @2752
    _ZN9__gnu_cxx17__normal_iteratorIPPN14WorkflowEngine8Criteria4Core9IWorkflowESt6vectorIS5_SaIS5_EEEC1ERKS6_ @2753
    _ZN9__gnu_cxx17__normal_iteratorIPPN14WorkflowEngine8Criteria4Core9IWorkflowESt6vectorIS5_SaIS5_EEEppEi @2754
    _ZN9__gnu_cxx17__normal_iteratorIPPN14WorkflowEngine8Criteria5Event13EventListenerESt6vectorIS5_SaIS5_EEEC1ERKS6_ @2755
    _ZN9__gnu_cxx17__normal_iteratorIPPN14WorkflowEngine8Criteria5Event13EventListenerESt6vectorIS5_SaIS5_EEEppEi @2756
    _ZN9__gnu_cxx17__normal_iteratorIPPN3bOS11Collections15CollectionEntryESt6vectorIS4_SaIS4_EEEC1ERKS5_ @2757
    _ZN9__gnu_cxx17__normal_iteratorIPPN3bOS3SQL8SQLTableESt6vectorIS4_SaIS4_EEEC1ERKS5_ @2758
    _ZN9__gnu_cxxltIPPN14WorkflowEngine8Criteria4Core14WorkFlowThreadESt6vectorIS5_SaIS5_EEEEbRKNS_17__normal_iteratorIT_T0_EESF_ @2759
    _ZN9__gnu_cxxltIPPN14WorkflowEngine8Criteria4Core9IWorkflowESt6vectorIS5_SaIS5_EEEEbRKNS_17__normal_iteratorIT_T0_EESF_ @2760
    _ZN9__gnu_cxxltIPPN14WorkflowEngine8Criteria5Event13EventListenerESt6vectorIS5_SaIS5_EEEEbRKNS_17__normal_iteratorIT_T0_EESF_ @2761
    _ZN9__gnu_cxxmiIPKPN11DataManager8DataBase14ProcessHandlerESt6vectorIS4_SaIS4_EEEENS_17__normal_iteratorIT_T0_E15difference_typeERKSD_SG_ @2762
    _ZN9__gnu_cxxmiIPKPN14WorkflowEngine8Criteria4Core9IWorkflowESt6vectorIS5_SaIS5_EEEENS_17__normal_iteratorIT_T0_E15difference_typeERKSE_SH_ @2763
    _ZN9__gnu_cxxneIPKSsSt6vectorISsSaISsEEEEbRKNS_17__normal_iteratorIT_T0_EESB_ @2764
    _ZN9__gnu_cxxneIPPN11DataManager8DataBase14ProcessHandlerESt6vectorIS4_SaIS4_EEEEbRKNS_17__normal_iteratorIT_T0_EESE_ @2765
    _ZN9__gnu_cxxneIPPN14WorkflowEngine6Idioma13ItemInterfaceESt6vectorIS4_SaIS4_EEEEbRKNS_17__normal_iteratorIT_T0_EESE_ @2766
    _ZN9__gnu_cxxneIPPN14WorkflowEngine6Idioma9ParameterESt6vectorIS4_SaIS4_EEEEbRKNS_17__normal_iteratorIT_T0_EESE_ @2767
    _ZN9__gnu_cxxneIPPN14WorkflowEngine8Criteria4Core9IWorkflowESt6vectorIS5_SaIS5_EEEEbRKNS_17__normal_iteratorIT_T0_EESF_ @2768
    _ZNK9__gnu_cxx13new_allocatorIN14WorkflowEngine14WorkflowActionEE8max_sizeEv @2769
    _ZNK9__gnu_cxx13new_allocatorIPN11DataManager8DataBase14ProcessHandlerEE8max_sizeEv @2770
    _ZNK9__gnu_cxx13new_allocatorIPN11DataManager8DataBase16DataBaseTemplateEE8max_sizeEv @2771
    _ZNK9__gnu_cxx13new_allocatorIPN11DataManager8Panorama17WorkflowProcesses15WorkflowProcessEE8max_sizeEv @2772
    _ZNK9__gnu_cxx13new_allocatorIPN11DataManager8Panorama17WorkflowProcesses8ActivityEE8max_sizeEv @2773
    _ZNK9__gnu_cxx13new_allocatorIPN14WorkflowEngine6Idioma13ItemInterfaceEE8max_sizeEv @2774
    _ZNK9__gnu_cxx13new_allocatorIPN14WorkflowEngine6Idioma9ParameterEE8max_sizeEv @2775
    _ZNK9__gnu_cxx13new_allocatorIPN14WorkflowEngine8Criteria4Core14WorkFlowThreadEE8max_sizeEv @2776
    _ZNK9__gnu_cxx13new_allocatorIPN14WorkflowEngine8Criteria4Core9IWorkflowEE8max_sizeEv @2777
    _ZNK9__gnu_cxx13new_allocatorIPN14WorkflowEngine8Criteria5Event13EventListenerEE8max_sizeEv @2778
    _ZNK9__gnu_cxx13new_allocatorIPN3bOS11Collections15CollectionEntryEE8max_sizeEv @2779
    _ZNK9__gnu_cxx13new_allocatorIPN3bOS3SQL8SQLTableEE8max_sizeEv @2780
    _ZNK9__gnu_cxx13new_allocatorISsE8max_sizeEv @2781
    _ZNK9__gnu_cxx17__normal_iteratorIPKPN11DataManager8DataBase14ProcessHandlerESt6vectorIS4_SaIS4_EEE4baseEv @2782
    _ZNK9__gnu_cxx17__normal_iteratorIPKPN14WorkflowEngine8Criteria4Core9IWorkflowESt6vectorIS5_SaIS5_EEE4baseEv @2783
    _ZNK9__gnu_cxx17__normal_iteratorIPKPN3bOS11Collections15CollectionEntryESt6vectorIS4_SaIS4_EEE4baseEv @2784
    _ZNK9__gnu_cxx17__normal_iteratorIPKPN3bOS3SQL8SQLTableESt6vectorIS4_SaIS4_EEE4baseEv @2785
    _ZNK9__gnu_cxx17__normal_iteratorIPKSsSt6vectorISsSaISsEEE4baseEv @2786
    _ZNK9__gnu_cxx17__normal_iteratorIPKSsSt6vectorISsSaISsEEEdeEv @2787
    _ZNK9__gnu_cxx17__normal_iteratorIPPN11DataManager8DataBase14ProcessHandlerESt6vectorIS4_SaIS4_EEE4baseEv @2788
    _ZNK9__gnu_cxx17__normal_iteratorIPPN11DataManager8DataBase14ProcessHandlerESt6vectorIS4_SaIS4_EEEdeEv @2789
    _ZNK9__gnu_cxx17__normal_iteratorIPPN11DataManager8DataBase14ProcessHandlerESt6vectorIS4_SaIS4_EEEplEi @2790
    _ZNK9__gnu_cxx17__normal_iteratorIPPN14WorkflowEngine6Idioma13ItemInterfaceESt6vectorIS4_SaIS4_EEE4baseEv @2791
    _ZNK9__gnu_cxx17__normal_iteratorIPPN14WorkflowEngine6Idioma13ItemInterfaceESt6vectorIS4_SaIS4_EEEdeEv @2792
    _ZNK9__gnu_cxx17__normal_iteratorIPPN14WorkflowEngine6Idioma9ParameterESt6vectorIS4_SaIS4_EEE4baseEv @2793
    _ZNK9__gnu_cxx17__normal_iteratorIPPN14WorkflowEngine6Idioma9ParameterESt6vectorIS4_SaIS4_EEEdeEv @2794
    _ZNK9__gnu_cxx17__normal_iteratorIPPN14WorkflowEngine8Criteria4Core14WorkFlowThreadESt6vectorIS5_SaIS5_EEE4baseEv @2795
    _ZNK9__gnu_cxx17__normal_iteratorIPPN14WorkflowEngine8Criteria4Core14WorkFlowThreadESt6vectorIS5_SaIS5_EEEdeEv @2796
    _ZNK9__gnu_cxx17__normal_iteratorIPPN14WorkflowEngine8Criteria4Core9IWorkflowESt6vectorIS5_SaIS5_EEE4baseEv @2797
    _ZNK9__gnu_cxx17__normal_iteratorIPPN14WorkflowEngine8Criteria4Core9IWorkflowESt6vectorIS5_SaIS5_EEEdeEv @2798
    _ZNK9__gnu_cxx17__normal_iteratorIPPN14WorkflowEngine8Criteria4Core9IWorkflowESt6vectorIS5_SaIS5_EEEplEi @2799
    _ZNK9__gnu_cxx17__normal_iteratorIPPN14WorkflowEngine8Criteria5Event13EventListenerESt6vectorIS5_SaIS5_EEE4baseEv @2800
    _ZNK9__gnu_cxx17__normal_iteratorIPPN14WorkflowEngine8Criteria5Event13EventListenerESt6vectorIS5_SaIS5_EEEdeEv @2801
    _ZNK9__gnu_cxx17__normal_iteratorIPPN3bOS11Collections15CollectionEntryESt6vectorIS4_SaIS4_EEE4baseEv @2802
    _ZNK9__gnu_cxx17__normal_iteratorIPPN3bOS3SQL8SQLTableESt6vectorIS4_SaIS4_EEE4baseEv @2803
    _ZNKSt12_Vector_baseIN14WorkflowEngine14WorkflowActionESaIS1_EE19_M_get_Tp_allocatorEv @2804
    _ZNKSt12_Vector_baseIPN11DataManager8DataBase14ProcessHandlerESaIS3_EE19_M_get_Tp_allocatorEv @2805
    _ZNKSt12_Vector_baseIPN11DataManager8DataBase16DataBaseTemplateESaIS3_EE19_M_get_Tp_allocatorEv @2806
    _ZNKSt12_Vector_baseIPN11DataManager8Panorama17WorkflowProcesses15WorkflowProcessESaIS4_EE19_M_get_Tp_allocatorEv @2807
    _ZNKSt12_Vector_baseIPN11DataManager8Panorama17WorkflowProcesses8ActivityESaIS4_EE19_M_get_Tp_allocatorEv @2808
    _ZNKSt12_Vector_baseIPN14WorkflowEngine6Idioma13ItemInterfaceESaIS3_EE19_M_get_Tp_allocatorEv @2809
    _ZNKSt12_Vector_baseIPN14WorkflowEngine6Idioma9ParameterESaIS3_EE19_M_get_Tp_allocatorEv @2810
    _ZNKSt12_Vector_baseIPN14WorkflowEngine8Criteria4Core14WorkFlowThreadESaIS4_EE19_M_get_Tp_allocatorEv @2811
    _ZNKSt12_Vector_baseIPN14WorkflowEngine8Criteria4Core9IWorkflowESaIS4_EE19_M_get_Tp_allocatorEv @2812
    _ZNKSt12_Vector_baseIPN14WorkflowEngine8Criteria5Event13EventListenerESaIS4_EE19_M_get_Tp_allocatorEv @2813
    _ZNKSt12_Vector_baseIPN3bOS11Collections15CollectionEntryESaIS3_EE19_M_get_Tp_allocatorEv @2814
    _ZNKSt12_Vector_baseIPN3bOS3SQL8SQLTableESaIS3_EE19_M_get_Tp_allocatorEv @2815
    _ZNKSt12_Vector_baseISsSaISsEE13get_allocatorEv @2816
    _ZNKSt12_Vector_baseISsSaISsEE19_M_get_Tp_allocatorEv @2817
    _ZNKSt13move_iteratorIPPN11DataManager8DataBase14ProcessHandlerEE4baseEv @2818
    _ZNKSt13move_iteratorIPPN11DataManager8DataBase16DataBaseTemplateEE4baseEv @2819
    _ZNKSt13move_iteratorIPPN11DataManager8Panorama17WorkflowProcesses15WorkflowProcessEE4baseEv @2820
    _ZNKSt13move_iteratorIPPN11DataManager8Panorama17WorkflowProcesses8ActivityEE4baseEv @2821
    _ZNKSt13move_iteratorIPPN14WorkflowEngine6Idioma13ItemInterfaceEE4baseEv @2822
    _ZNKSt13move_iteratorIPPN14WorkflowEngine6Idioma9ParameterEE4baseEv @2823
    _ZNKSt13move_iteratorIPPN14WorkflowEngine8Criteria4Core14WorkFlowThreadEE4baseEv @2824
    _ZNKSt13move_iteratorIPPN14WorkflowEngine8Criteria4Core9IWorkflowEE4baseEv @2825
    _ZNKSt13move_iteratorIPPN14WorkflowEngine8Criteria5Event13EventListenerEE4baseEv @2826
    _ZNKSt13move_iteratorIPPN3bOS3SQL8SQLTableEE4baseEv @2827
    _ZNKSt13move_iteratorIPSsE4baseEv @2828
    _ZNKSt13move_iteratorIPSsEdeEv @2829
    _ZNKSt6vectorIN14WorkflowEngine14WorkflowActionESaIS1_EE12_M_check_lenEjPKc @2830
    _ZNKSt6vectorIN14WorkflowEngine14WorkflowActionESaIS1_EE14_M_range_checkEj @2831
    _ZNKSt6vectorIN14WorkflowEngine14WorkflowActionESaIS1_EE4sizeEv @2832
    _ZNKSt6vectorIN14WorkflowEngine14WorkflowActionESaIS1_EE8max_sizeEv @2833
    _ZNKSt6vectorIPN11DataManager8DataBase14ProcessHandlerESaIS3_EE12_M_check_lenEjPKc @2834
    _ZNKSt6vectorIPN11DataManager8DataBase14ProcessHandlerESaIS3_EE14_M_range_checkEj @2835
    _ZNKSt6vectorIPN11DataManager8DataBase14ProcessHandlerESaIS3_EE4sizeEv @2836
    _ZNKSt6vectorIPN11DataManager8DataBase14ProcessHandlerESaIS3_EE6cbeginEv @2837
    _ZNKSt6vectorIPN11DataManager8DataBase14ProcessHandlerESaIS3_EE8max_sizeEv @2838
    _ZNKSt6vectorIPN11DataManager8DataBase16DataBaseTemplateESaIS3_EE12_M_check_lenEjPKc @2839
    _ZNKSt6vectorIPN11DataManager8DataBase16DataBaseTemplateESaIS3_EE14_M_range_checkEj @2840
    _ZNKSt6vectorIPN11DataManager8DataBase16DataBaseTemplateESaIS3_EE4sizeEv @2841
    _ZNKSt6vectorIPN11DataManager8DataBase16DataBaseTemplateESaIS3_EE8max_sizeEv @2842
    _ZNKSt6vectorIPN11DataManager8Panorama17WorkflowProcesses15WorkflowProcessESaIS4_EE12_M_check_lenEjPKc @2843
    _ZNKSt6vectorIPN11DataManager8Panorama17WorkflowProcesses15WorkflowProcessESaIS4_EE14_M_range_checkEj @2844
    _ZNKSt6vectorIPN11DataManager8Panorama17WorkflowProcesses15WorkflowProcessESaIS4_EE4sizeEv @2845
    _ZNKSt6vectorIPN11DataManager8Panorama17WorkflowProcesses15WorkflowProcessESaIS4_EE8max_sizeEv @2846
    _ZNKSt6vectorIPN11DataManager8Panorama17WorkflowProcesses8ActivityESaIS4_EE12_M_check_lenEjPKc @2847
    _ZNKSt6vectorIPN11DataManager8Panorama17WorkflowProcesses8ActivityESaIS4_EE14_M_range_checkEj @2848
    _ZNKSt6vectorIPN11DataManager8Panorama17WorkflowProcesses8ActivityESaIS4_EE4sizeEv @2849
    _ZNKSt6vectorIPN11DataManager8Panorama17WorkflowProcesses8ActivityESaIS4_EE8max_sizeEv @2850
    _ZNKSt6vectorIPN14WorkflowEngine6Idioma13ItemInterfaceESaIS3_EE12_M_check_lenEjPKc @2851
    _ZNKSt6vectorIPN14WorkflowEngine6Idioma13ItemInterfaceESaIS3_EE14_M_range_checkEj @2852
    _ZNKSt6vectorIPN14WorkflowEngine6Idioma13ItemInterfaceESaIS3_EE4sizeEv @2853
    _ZNKSt6vectorIPN14WorkflowEngine6Idioma13ItemInterfaceESaIS3_EE8max_sizeEv @2854
    _ZNKSt6vectorIPN14WorkflowEngine6Idioma9ParameterESaIS3_EE12_M_check_lenEjPKc @2855
    _ZNKSt6vectorIPN14WorkflowEngine6Idioma9ParameterESaIS3_EE14_M_range_checkEj @2856
    _ZNKSt6vectorIPN14WorkflowEngine6Idioma9ParameterESaIS3_EE4sizeEv @2857
    _ZNKSt6vectorIPN14WorkflowEngine6Idioma9ParameterESaIS3_EE8max_sizeEv @2858
    _ZNKSt6vectorIPN14WorkflowEngine8Criteria4Core14WorkFlowThreadESaIS4_EE12_M_check_lenEjPKc @2859
    _ZNKSt6vectorIPN14WorkflowEngine8Criteria4Core14WorkFlowThreadESaIS4_EE4sizeEv @2860
    _ZNKSt6vectorIPN14WorkflowEngine8Criteria4Core14WorkFlowThreadESaIS4_EE8max_sizeEv @2861
    _ZNKSt6vectorIPN14WorkflowEngine8Criteria4Core9IWorkflowESaIS4_EE12_M_check_lenEjPKc @2862
    _ZNKSt6vectorIPN14WorkflowEngine8Criteria4Core9IWorkflowESaIS4_EE14_M_range_checkEj @2863
    _ZNKSt6vectorIPN14WorkflowEngine8Criteria4Core9IWorkflowESaIS4_EE3endEv @2864
    _ZNKSt6vectorIPN14WorkflowEngine8Criteria4Core9IWorkflowESaIS4_EE4sizeEv @2865
    _ZNKSt6vectorIPN14WorkflowEngine8Criteria4Core9IWorkflowESaIS4_EE5beginEv @2866
    _ZNKSt6vectorIPN14WorkflowEngine8Criteria4Core9IWorkflowESaIS4_EE6cbeginEv @2867
    _ZNKSt6vectorIPN14WorkflowEngine8Criteria4Core9IWorkflowESaIS4_EE8max_sizeEv @2868
    _ZNKSt6vectorIPN14WorkflowEngine8Criteria5Event13EventListenerESaIS4_EE12_M_check_lenEjPKc @2869
    _ZNKSt6vectorIPN14WorkflowEngine8Criteria5Event13EventListenerESaIS4_EE4sizeEv @2870
    _ZNKSt6vectorIPN14WorkflowEngine8Criteria5Event13EventListenerESaIS4_EE8max_sizeEv @2871
    _ZNKSt6vectorIPN3bOS11Collections15CollectionEntryESaIS3_EE3endEv @2872
    _ZNKSt6vectorIPN3bOS11Collections15CollectionEntryESaIS3_EE4sizeEv @2873
    _ZNKSt6vectorIPN3bOS11Collections15CollectionEntryESaIS3_EE5beginEv @2874
    _ZNKSt6vectorIPN3bOS11Collections15CollectionEntryESaIS3_EE8capacityEv @2875
    _ZNKSt6vectorIPN3bOS3SQL10SQLCommandESaIS3_EE14_M_range_checkEj @2876
    _ZNKSt6vectorIPN3bOS3SQL10SQLCommandESaIS3_EE4sizeEv @2877
    _ZNKSt6vectorIPN3bOS3SQL8SQLTableESaIS3_EE12_M_check_lenEjPKc @2878
    _ZNKSt6vectorIPN3bOS3SQL8SQLTableESaIS3_EE14_M_range_checkEj @2879
    _ZNKSt6vectorIPN3bOS3SQL8SQLTableESaIS3_EE3endEv @2880
    _ZNKSt6vectorIPN3bOS3SQL8SQLTableESaIS3_EE4sizeEv @2881
    _ZNKSt6vectorIPN3bOS3SQL8SQLTableESaIS3_EE5beginEv @2882
    _ZNKSt6vectorIPN3bOS3SQL8SQLTableESaIS3_EE8capacityEv @2883
    _ZNKSt6vectorIPN3bOS3SQL8SQLTableESaIS3_EE8max_sizeEv @2884
    _ZNKSt6vectorISsSaISsEE12_M_check_lenEjPKc @2885
    _ZNKSt6vectorISsSaISsEE14_M_range_checkEj @2886
    _ZNKSt6vectorISsSaISsEE3endEv @2887
    _ZNKSt6vectorISsSaISsEE4sizeEv @2888
    _ZNKSt6vectorISsSaISsEE5beginEv @2889
    _ZNKSt6vectorISsSaISsEE8max_sizeEv @2890
    _ZNSaIN14WorkflowEngine14WorkflowActionEEC2Ev @2891
    _ZNSaIN14WorkflowEngine14WorkflowActionEED2Ev @2892
    _ZNSaIPN11DataManager8DataBase14ProcessHandlerEEC2Ev @2893
    _ZNSaIPN11DataManager8DataBase14ProcessHandlerEED2Ev @2894
    _ZNSaIPN11DataManager8DataBase16DataBaseTemplateEEC2Ev @2895
    _ZNSaIPN11DataManager8DataBase16DataBaseTemplateEED2Ev @2896
    _ZNSaIPN11DataManager8Panorama17WorkflowProcesses15WorkflowProcessEEC2Ev @2897
    _ZNSaIPN11DataManager8Panorama17WorkflowProcesses15WorkflowProcessEED2Ev @2898
    _ZNSaIPN11DataManager8Panorama17WorkflowProcesses8ActivityEEC2Ev @2899
    _ZNSaIPN11DataManager8Panorama17WorkflowProcesses8ActivityEED2Ev @2900
    _ZNSaIPN14WorkflowEngine6Idioma13ItemInterfaceEEC2Ev @2901
    _ZNSaIPN14WorkflowEngine6Idioma13ItemInterfaceEED2Ev @2902
    _ZNSaIPN14WorkflowEngine6Idioma9ParameterEEC2Ev @2903
    _ZNSaIPN14WorkflowEngine6Idioma9ParameterEED2Ev @2904
    _ZNSaIPN14WorkflowEngine8Criteria4Core14WorkFlowThreadEEC2Ev @2905
    _ZNSaIPN14WorkflowEngine8Criteria4Core14WorkFlowThreadEED2Ev @2906
    _ZNSaIPN14WorkflowEngine8Criteria4Core9IWorkflowEEC1ERKS4_ @2907
    _ZNSaIPN14WorkflowEngine8Criteria4Core9IWorkflowEEC2ERKS4_ @2908
    _ZNSaIPN14WorkflowEngine8Criteria4Core9IWorkflowEEC2Ev @2909
    _ZNSaIPN14WorkflowEngine8Criteria4Core9IWorkflowEED1Ev @2910
    _ZNSaIPN14WorkflowEngine8Criteria4Core9IWorkflowEED2Ev @2911
    _ZNSaIPN14WorkflowEngine8Criteria5Event13EventListenerEEC2Ev @2912
    _ZNSaIPN14WorkflowEngine8Criteria5Event13EventListenerEED2Ev @2913
    _ZNSaIPN3bOS3SQL8SQLTableEEC1ERKS3_ @2914
    _ZNSaIPN3bOS3SQL8SQLTableEEC2ERKS3_ @2915
    _ZNSaIPN3bOS3SQL8SQLTableEED1Ev @2916
    _ZNSaIPN3bOS3SQL8SQLTableEED2Ev @2917
    _ZNSaISsEC1ERKS_ @2918
    _ZNSaISsEC2ERKS_ @2919
    _ZNSaISsEC2Ev @2920
    _ZNSaISsED1Ev @2921
    _ZNSaISsED2Ev @2922
    _ZNSt10_Iter_baseIN9__gnu_cxx17__normal_iteratorIPKPN14WorkflowEngine8Criteria4Core9IWorkflowESt6vectorIS6_SaIS6_EEEELb0EE7_S_baseESC_ @2923
    _ZNSt10_Iter_baseIN9__gnu_cxx17__normal_iteratorIPKPN14WorkflowEngine8Criteria4Core9IWorkflowESt6vectorIS6_SaIS6_EEEELb1EE7_S_baseESC_ @2924
    _ZNSt10_Iter_baseIN9__gnu_cxx17__normal_iteratorIPKPN3bOS11Collections15CollectionEntryESt6vectorIS5_SaIS5_EEEELb0EE7_S_baseESB_ @2925
    _ZNSt10_Iter_baseIN9__gnu_cxx17__normal_iteratorIPKPN3bOS11Collections15CollectionEntryESt6vectorIS5_SaIS5_EEEELb1EE7_S_baseESB_ @2926
    _ZNSt10_Iter_baseIN9__gnu_cxx17__normal_iteratorIPKPN3bOS3SQL8SQLTableESt6vectorIS5_SaIS5_EEEELb0EE7_S_baseESB_ @2927
    _ZNSt10_Iter_baseIN9__gnu_cxx17__normal_iteratorIPKPN3bOS3SQL8SQLTableESt6vectorIS5_SaIS5_EEEELb1EE7_S_baseESB_ @2928
    _ZNSt10_Iter_baseIN9__gnu_cxx17__normal_iteratorIPPN11DataManager8DataBase14ProcessHandlerESt6vectorIS5_SaIS5_EEEELb0EE7_S_baseESA_ @2929
    _ZNSt10_Iter_baseIN9__gnu_cxx17__normal_iteratorIPPN11DataManager8DataBase14ProcessHandlerESt6vectorIS5_SaIS5_EEEELb1EE7_S_baseESA_ @2930
    _ZNSt10_Iter_baseIN9__gnu_cxx17__normal_iteratorIPPN14WorkflowEngine8Criteria4Core9IWorkflowESt6vectorIS6_SaIS6_EEEELb0EE7_S_baseESB_ @2931
    _ZNSt10_Iter_baseIN9__gnu_cxx17__normal_iteratorIPPN14WorkflowEngine8Criteria4Core9IWorkflowESt6vectorIS6_SaIS6_EEEELb1EE7_S_baseESB_ @2932
    _ZNSt10_Iter_baseIN9__gnu_cxx17__normal_iteratorIPPN3bOS11Collections15CollectionEntryESt6vectorIS5_SaIS5_EEEELb1EE7_S_baseESA_ @2933
    _ZNSt10_Iter_baseIN9__gnu_cxx17__normal_iteratorIPPN3bOS3SQL8SQLTableESt6vectorIS5_SaIS5_EEEELb1EE7_S_baseESA_ @2934
    _ZNSt10_Iter_baseIPPN11DataManager8DataBase14ProcessHandlerELb0EE7_S_baseES4_ @2935
    _ZNSt10_Iter_baseIPPN11DataManager8DataBase16DataBaseTemplateELb0EE7_S_baseES4_ @2936
    _ZNSt10_Iter_baseIPPN11DataManager8Panorama17WorkflowProcesses15WorkflowProcessELb0EE7_S_baseES5_ @2937
    _ZNSt10_Iter_baseIPPN11DataManager8Panorama17WorkflowProcesses8ActivityELb0EE7_S_baseES5_ @2938
    _ZNSt10_Iter_baseIPPN14WorkflowEngine6Idioma13ItemInterfaceELb0EE7_S_baseES4_ @2939
    _ZNSt10_Iter_baseIPPN14WorkflowEngine6Idioma9ParameterELb0EE7_S_baseES4_ @2940
    _ZNSt10_Iter_baseIPPN14WorkflowEngine8Criteria4Core14WorkFlowThreadELb0EE7_S_baseES5_ @2941
    _ZNSt10_Iter_baseIPPN14WorkflowEngine8Criteria4Core9IWorkflowELb0EE7_S_baseES5_ @2942
    _ZNSt10_Iter_baseIPPN14WorkflowEngine8Criteria5Event13EventListenerELb0EE7_S_baseES5_ @2943
    _ZNSt10_Iter_baseIPPN3bOS11Collections15CollectionEntryELb0EE7_S_baseES4_ @2944
    _ZNSt10_Iter_baseIPPN3bOS3SQL8SQLTableELb0EE7_S_baseES4_ @2945
    _ZNSt10_Iter_baseISt13move_iteratorIPPN11DataManager8DataBase14ProcessHandlerEELb1EE7_S_baseES6_ @2946
    _ZNSt10_Iter_baseISt13move_iteratorIPPN11DataManager8DataBase16DataBaseTemplateEELb1EE7_S_baseES6_ @2947
    _ZNSt10_Iter_baseISt13move_iteratorIPPN11DataManager8Panorama17WorkflowProcesses15WorkflowProcessEELb1EE7_S_baseES7_ @2948
    _ZNSt10_Iter_baseISt13move_iteratorIPPN11DataManager8Panorama17WorkflowProcesses8ActivityEELb1EE7_S_baseES7_ @2949
    _ZNSt10_Iter_baseISt13move_iteratorIPPN14WorkflowEngine6Idioma13ItemInterfaceEELb1EE7_S_baseES6_ @2950
    _ZNSt10_Iter_baseISt13move_iteratorIPPN14WorkflowEngine6Idioma9ParameterEELb1EE7_S_baseES6_ @2951
    _ZNSt10_Iter_baseISt13move_iteratorIPPN14WorkflowEngine8Criteria4Core14WorkFlowThreadEELb1EE7_S_baseES7_ @2952
    _ZNSt10_Iter_baseISt13move_iteratorIPPN14WorkflowEngine8Criteria4Core9IWorkflowEELb1EE7_S_baseES7_ @2953
    _ZNSt10_Iter_baseISt13move_iteratorIPPN14WorkflowEngine8Criteria5Event13EventListenerEELb1EE7_S_baseES7_ @2954
    _ZNSt10_Iter_baseISt13move_iteratorIPPN3bOS3SQL8SQLTableEELb1EE7_S_baseES6_ @2955
    _ZNSt11__copy_moveILb0ELb1ESt26random_access_iterator_tagE8__copy_mIPN14WorkflowEngine8Criteria4Core9IWorkflowEEEPT_PKS8_SB_S9_ @2956
    _ZNSt11__copy_moveILb0ELb1ESt26random_access_iterator_tagE8__copy_mIPN3bOS11Collections15CollectionEntryEEEPT_PKS7_SA_S8_ @2957
    _ZNSt11__copy_moveILb0ELb1ESt26random_access_iterator_tagE8__copy_mIPN3bOS3SQL8SQLTableEEEPT_PKS7_SA_S8_ @2958
    _ZNSt11__copy_moveILb1ELb1ESt26random_access_iterator_tagE8__copy_mIPN11DataManager8DataBase14ProcessHandlerEEEPT_PKS7_SA_S8_ @2959
    _ZNSt11__copy_moveILb1ELb1ESt26random_access_iterator_tagE8__copy_mIPN11DataManager8DataBase16DataBaseTemplateEEEPT_PKS7_SA_S8_ @2960
    _ZNSt11__copy_moveILb1ELb1ESt26random_access_iterator_tagE8__copy_mIPN11DataManager8Panorama17WorkflowProcesses15WorkflowProcessEEEPT_PKS8_SB_S9_ @2961
    _ZNSt11__copy_moveILb1ELb1ESt26random_access_iterator_tagE8__copy_mIPN11DataManager8Panorama17WorkflowProcesses8ActivityEEEPT_PKS8_SB_S9_ @2962
    _ZNSt11__copy_moveILb1ELb1ESt26random_access_iterator_tagE8__copy_mIPN14WorkflowEngine6Idioma13ItemInterfaceEEEPT_PKS7_SA_S8_ @2963
    _ZNSt11__copy_moveILb1ELb1ESt26random_access_iterator_tagE8__copy_mIPN14WorkflowEngine6Idioma9ParameterEEEPT_PKS7_SA_S8_ @2964
    _ZNSt11__copy_moveILb1ELb1ESt26random_access_iterator_tagE8__copy_mIPN14WorkflowEngine8Criteria4Core14WorkFlowThreadEEEPT_PKS8_SB_S9_ @2965
    _ZNSt11__copy_moveILb1ELb1ESt26random_access_iterator_tagE8__copy_mIPN14WorkflowEngine8Criteria4Core9IWorkflowEEEPT_PKS8_SB_S9_ @2966
    _ZNSt11__copy_moveILb1ELb1ESt26random_access_iterator_tagE8__copy_mIPN14WorkflowEngine8Criteria5Event13EventListenerEEEPT_PKS8_SB_S9_ @2967
    _ZNSt11__copy_moveILb1ELb1ESt26random_access_iterator_tagE8__copy_mIPN3bOS3SQL8SQLTableEEEPT_PKS7_SA_S8_ @2968
    _ZNSt11char_traitsIcE6lengthEPKc @2969
    _ZNSt11char_traitsIcE7compareEPKcS2_j @2970
    _ZNSt12_Destroy_auxILb0EE9__destroyIPN14WorkflowEngine14WorkflowActionEEEvT_S5_ @2971
    _ZNSt12_Destroy_auxILb0EE9__destroyIPSsEEvT_S3_ @2972
    _ZNSt12_Destroy_auxILb1EE9__destroyIN9__gnu_cxx17__normal_iteratorIPPN3bOS11Collections15CollectionEntryESt6vectorIS7_SaIS7_EEEEEEvT_SD_ @2973
    _ZNSt12_Destroy_auxILb1EE9__destroyIN9__gnu_cxx17__normal_iteratorIPPN3bOS3SQL8SQLTableESt6vectorIS7_SaIS7_EEEEEEvT_SD_ @2974
    _ZNSt12_Destroy_auxILb1EE9__destroyIPPN11DataManager8DataBase14ProcessHandlerEEEvT_S7_ @2975
    _ZNSt12_Destroy_auxILb1EE9__destroyIPPN11DataManager8DataBase16DataBaseTemplateEEEvT_S7_ @2976
    _ZNSt12_Destroy_auxILb1EE9__destroyIPPN11DataManager8Panorama17WorkflowProcesses15WorkflowProcessEEEvT_S8_ @2977
    _ZNSt12_Destroy_auxILb1EE9__destroyIPPN11DataManager8Panorama17WorkflowProcesses8ActivityEEEvT_S8_ @2978
    _ZNSt12_Destroy_auxILb1EE9__destroyIPPN14WorkflowEngine6Idioma13ItemInterfaceEEEvT_S7_ @2979
    _ZNSt12_Destroy_auxILb1EE9__destroyIPPN14WorkflowEngine6Idioma9ParameterEEEvT_S7_ @2980
    _ZNSt12_Destroy_auxILb1EE9__destroyIPPN14WorkflowEngine8Criteria4Core14WorkFlowThreadEEEvT_S8_ @2981
    _ZNSt12_Destroy_auxILb1EE9__destroyIPPN14WorkflowEngine8Criteria4Core9IWorkflowEEEvT_S8_ @2982
    _ZNSt12_Destroy_auxILb1EE9__destroyIPPN14WorkflowEngine8Criteria5Event13EventListenerEEEvT_S8_ @2983
    _ZNSt12_Destroy_auxILb1EE9__destroyIPPN3bOS11Collections15CollectionEntryEEEvT_S7_ @2984
    _ZNSt12_Destroy_auxILb1EE9__destroyIPPN3bOS3SQL8SQLTableEEEvT_S7_ @2985
    _ZNSt12_Vector_baseIN14WorkflowEngine14WorkflowActionESaIS1_EE11_M_allocateEj @2986
    _ZNSt12_Vector_baseIN14WorkflowEngine14WorkflowActionESaIS1_EE12_Vector_implC1Ev @2987
    _ZNSt12_Vector_baseIN14WorkflowEngine14WorkflowActionESaIS1_EE12_Vector_implD1Ev @2988
    _ZNSt12_Vector_baseIN14WorkflowEngine14WorkflowActionESaIS1_EE13_M_deallocateEPS1_j @2989
    _ZNSt12_Vector_baseIN14WorkflowEngine14WorkflowActionESaIS1_EE19_M_get_Tp_allocatorEv @2990
    _ZNSt12_Vector_baseIN14WorkflowEngine14WorkflowActionESaIS1_EEC2Ev @2991
    _ZNSt12_Vector_baseIN14WorkflowEngine14WorkflowActionESaIS1_EED2Ev @2992
    _ZNSt12_Vector_baseIPN11DataManager8DataBase14ProcessHandlerESaIS3_EE11_M_allocateEj @2993
    _ZNSt12_Vector_baseIPN11DataManager8DataBase14ProcessHandlerESaIS3_EE12_Vector_implC1Ev @2994
    _ZNSt12_Vector_baseIPN11DataManager8DataBase14ProcessHandlerESaIS3_EE12_Vector_implD1Ev @2995
    _ZNSt12_Vector_baseIPN11DataManager8DataBase14ProcessHandlerESaIS3_EE13_M_deallocateEPS3_j @2996
    _ZNSt12_Vector_baseIPN11DataManager8DataBase14ProcessHandlerESaIS3_EE19_M_get_Tp_allocatorEv @2997
    _ZNSt12_Vector_baseIPN11DataManager8DataBase14ProcessHandlerESaIS3_EEC2Ev @2998
    _ZNSt12_Vector_baseIPN11DataManager8DataBase14ProcessHandlerESaIS3_EED2Ev @2999
    _ZNSt12_Vector_baseIPN11DataManager8DataBase16DataBaseTemplateESaIS3_EE11_M_allocateEj @3000
    _ZNSt12_Vector_baseIPN11DataManager8DataBase16DataBaseTemplateESaIS3_EE12_Vector_implC1Ev @3001
    _ZNSt12_Vector_baseIPN11DataManager8DataBase16DataBaseTemplateESaIS3_EE12_Vector_implD1Ev @3002
    _ZNSt12_Vector_baseIPN11DataManager8DataBase16DataBaseTemplateESaIS3_EE13_M_deallocateEPS3_j @3003
    _ZNSt12_Vector_baseIPN11DataManager8DataBase16DataBaseTemplateESaIS3_EE19_M_get_Tp_allocatorEv @3004
    _ZNSt12_Vector_baseIPN11DataManager8DataBase16DataBaseTemplateESaIS3_EEC2Ev @3005
    _ZNSt12_Vector_baseIPN11DataManager8DataBase16DataBaseTemplateESaIS3_EED2Ev @3006
    _ZNSt12_Vector_baseIPN11DataManager8Panorama17WorkflowProcesses15WorkflowProcessESaIS4_EE11_M_allocateEj @3007
    _ZNSt12_Vector_baseIPN11DataManager8Panorama17WorkflowProcesses15WorkflowProcessESaIS4_EE12_Vector_implC1Ev @3008
    _ZNSt12_Vector_baseIPN11DataManager8Panorama17WorkflowProcesses15WorkflowProcessESaIS4_EE12_Vector_implD1Ev @3009
    _ZNSt12_Vector_baseIPN11DataManager8Panorama17WorkflowProcesses15WorkflowProcessESaIS4_EE13_M_deallocateEPS4_j @3010
    _ZNSt12_Vector_baseIPN11DataManager8Panorama17WorkflowProcesses15WorkflowProcessESaIS4_EE19_M_get_Tp_allocatorEv @3011
    _ZNSt12_Vector_baseIPN11DataManager8Panorama17WorkflowProcesses15WorkflowProcessESaIS4_EEC2Ev @3012
    _ZNSt12_Vector_baseIPN11DataManager8Panorama17WorkflowProcesses15WorkflowProcessESaIS4_EED2Ev @3013
    _ZNSt12_Vector_baseIPN11DataManager8Panorama17WorkflowProcesses8ActivityESaIS4_EE11_M_allocateEj @3014
    _ZNSt12_Vector_baseIPN11DataManager8Panorama17WorkflowProcesses8ActivityESaIS4_EE12_Vector_implC1Ev @3015
    _ZNSt12_Vector_baseIPN11DataManager8Panorama17WorkflowProcesses8ActivityESaIS4_EE12_Vector_implD1Ev @3016
    _ZNSt12_Vector_baseIPN11DataManager8Panorama17WorkflowProcesses8ActivityESaIS4_EE13_M_deallocateEPS4_j @3017
    _ZNSt12_Vector_baseIPN11DataManager8Panorama17WorkflowProcesses8ActivityESaIS4_EE19_M_get_Tp_allocatorEv @3018
    _ZNSt12_Vector_baseIPN11DataManager8Panorama17WorkflowProcesses8ActivityESaIS4_EEC2Ev @3019
    _ZNSt12_Vector_baseIPN11DataManager8Panorama17WorkflowProcesses8ActivityESaIS4_EED2Ev @3020
    _ZNSt12_Vector_baseIPN14WorkflowEngine6Idioma13ItemInterfaceESaIS3_EE11_M_allocateEj @3021
    _ZNSt12_Vector_baseIPN14WorkflowEngine6Idioma13ItemInterfaceESaIS3_EE12_Vector_implC1Ev @3022
    _ZNSt12_Vector_baseIPN14WorkflowEngine6Idioma13ItemInterfaceESaIS3_EE12_Vector_implD1Ev @3023
    _ZNSt12_Vector_baseIPN14WorkflowEngine6Idioma13ItemInterfaceESaIS3_EE13_M_deallocateEPS3_j @3024
    _ZNSt12_Vector_baseIPN14WorkflowEngine6Idioma13ItemInterfaceESaIS3_EE19_M_get_Tp_allocatorEv @3025
    _ZNSt12_Vector_baseIPN14WorkflowEngine6Idioma13ItemInterfaceESaIS3_EEC2Ev @3026
    _ZNSt12_Vector_baseIPN14WorkflowEngine6Idioma13ItemInterfaceESaIS3_EED2Ev @3027
    _ZNSt12_Vector_baseIPN14WorkflowEngine6Idioma9ParameterESaIS3_EE11_M_allocateEj @3028
    _ZNSt12_Vector_baseIPN14WorkflowEngine6Idioma9ParameterESaIS3_EE12_Vector_implC1Ev @3029
    _ZNSt12_Vector_baseIPN14WorkflowEngine6Idioma9ParameterESaIS3_EE12_Vector_implD1Ev @3030
    _ZNSt12_Vector_baseIPN14WorkflowEngine6Idioma9ParameterESaIS3_EE13_M_deallocateEPS3_j @3031
    _ZNSt12_Vector_baseIPN14WorkflowEngine6Idioma9ParameterESaIS3_EE19_M_get_Tp_allocatorEv @3032
    _ZNSt12_Vector_baseIPN14WorkflowEngine6Idioma9ParameterESaIS3_EEC2Ev @3033
    _ZNSt12_Vector_baseIPN14WorkflowEngine6Idioma9ParameterESaIS3_EED2Ev @3034
    _ZNSt12_Vector_baseIPN14WorkflowEngine8Criteria4Core14WorkFlowThreadESaIS4_EE11_M_allocateEj @3035
    _ZNSt12_Vector_baseIPN14WorkflowEngine8Criteria4Core14WorkFlowThreadESaIS4_EE12_Vector_implC1Ev @3036
    _ZNSt12_Vector_baseIPN14WorkflowEngine8Criteria4Core14WorkFlowThreadESaIS4_EE12_Vector_implD1Ev @3037
    _ZNSt12_Vector_baseIPN14WorkflowEngine8Criteria4Core14WorkFlowThreadESaIS4_EE13_M_deallocateEPS4_j @3038
    _ZNSt12_Vector_baseIPN14WorkflowEngine8Criteria4Core14WorkFlowThreadESaIS4_EE19_M_get_Tp_allocatorEv @3039
    _ZNSt12_Vector_baseIPN14WorkflowEngine8Criteria4Core14WorkFlowThreadESaIS4_EEC2Ev @3040
    _ZNSt12_Vector_baseIPN14WorkflowEngine8Criteria4Core14WorkFlowThreadESaIS4_EED2Ev @3041
    _ZNSt12_Vector_baseIPN14WorkflowEngine8Criteria4Core9IWorkflowESaIS4_EE11_M_allocateEj @3042
    _ZNSt12_Vector_baseIPN14WorkflowEngine8Criteria4Core9IWorkflowESaIS4_EE12_Vector_implC1ERKS5_ @3043
    _ZNSt12_Vector_baseIPN14WorkflowEngine8Criteria4Core9IWorkflowESaIS4_EE12_Vector_implC1Ev @3044
    _ZNSt12_Vector_baseIPN14WorkflowEngine8Criteria4Core9IWorkflowESaIS4_EE12_Vector_implD1Ev @3045
    _ZNSt12_Vector_baseIPN14WorkflowEngine8Criteria4Core9IWorkflowESaIS4_EE13_M_deallocateEPS4_j @3046
    _ZNSt12_Vector_baseIPN14WorkflowEngine8Criteria4Core9IWorkflowESaIS4_EE17_M_create_storageEj @3047
    _ZNSt12_Vector_baseIPN14WorkflowEngine8Criteria4Core9IWorkflowESaIS4_EE19_M_get_Tp_allocatorEv @3048
    _ZNSt12_Vector_baseIPN14WorkflowEngine8Criteria4Core9IWorkflowESaIS4_EEC2EjRKS5_ @3049
    _ZNSt12_Vector_baseIPN14WorkflowEngine8Criteria4Core9IWorkflowESaIS4_EEC2Ev @3050
    _ZNSt12_Vector_baseIPN14WorkflowEngine8Criteria4Core9IWorkflowESaIS4_EED2Ev @3051
    _ZNSt12_Vector_baseIPN14WorkflowEngine8Criteria5Event13EventListenerESaIS4_EE11_M_allocateEj @3052
    _ZNSt12_Vector_baseIPN14WorkflowEngine8Criteria5Event13EventListenerESaIS4_EE12_Vector_implC1Ev @3053
    _ZNSt12_Vector_baseIPN14WorkflowEngine8Criteria5Event13EventListenerESaIS4_EE12_Vector_implD1Ev @3054
    _ZNSt12_Vector_baseIPN14WorkflowEngine8Criteria5Event13EventListenerESaIS4_EE13_M_deallocateEPS4_j @3055
    _ZNSt12_Vector_baseIPN14WorkflowEngine8Criteria5Event13EventListenerESaIS4_EE19_M_get_Tp_allocatorEv @3056
    _ZNSt12_Vector_baseIPN14WorkflowEngine8Criteria5Event13EventListenerESaIS4_EEC2Ev @3057
    _ZNSt12_Vector_baseIPN14WorkflowEngine8Criteria5Event13EventListenerESaIS4_EED2Ev @3058
    _ZNSt12_Vector_baseIPN3bOS11Collections15CollectionEntryESaIS3_EE11_M_allocateEj @3059
    _ZNSt12_Vector_baseIPN3bOS11Collections15CollectionEntryESaIS3_EE13_M_deallocateEPS3_j @3060
    _ZNSt12_Vector_baseIPN3bOS11Collections15CollectionEntryESaIS3_EE19_M_get_Tp_allocatorEv @3061
    _ZNSt12_Vector_baseIPN3bOS3SQL8SQLTableESaIS3_EE11_M_allocateEj @3062
    _ZNSt12_Vector_baseIPN3bOS3SQL8SQLTableESaIS3_EE12_Vector_implC1ERKS4_ @3063
    _ZNSt12_Vector_baseIPN3bOS3SQL8SQLTableESaIS3_EE12_Vector_implD1Ev @3064
    _ZNSt12_Vector_baseIPN3bOS3SQL8SQLTableESaIS3_EE13_M_deallocateEPS3_j @3065
    _ZNSt12_Vector_baseIPN3bOS3SQL8SQLTableESaIS3_EE17_M_create_storageEj @3066
    _ZNSt12_Vector_baseIPN3bOS3SQL8SQLTableESaIS3_EE19_M_get_Tp_allocatorEv @3067
    _ZNSt12_Vector_baseIPN3bOS3SQL8SQLTableESaIS3_EEC2EjRKS4_ @3068
    _ZNSt12_Vector_baseIPN3bOS3SQL8SQLTableESaIS3_EED2Ev @3069
    _ZNSt12_Vector_baseISsSaISsEE11_M_allocateEj @3070
    _ZNSt12_Vector_baseISsSaISsEE12_Vector_impl12_M_swap_dataERS2_ @3071
    _ZNSt12_Vector_baseISsSaISsEE12_Vector_implC1ERKS0_ @3072
    _ZNSt12_Vector_baseISsSaISsEE12_Vector_implC1Ev @3073
    _ZNSt12_Vector_baseISsSaISsEE12_Vector_implD1Ev @3074
    _ZNSt12_Vector_baseISsSaISsEE13_M_deallocateEPSsj @3075
    _ZNSt12_Vector_baseISsSaISsEE17_M_create_storageEj @3076
    _ZNSt12_Vector_baseISsSaISsEE19_M_get_Tp_allocatorEv @3077
    _ZNSt12_Vector_baseISsSaISsEEC2ERKS0_ @3078
    _ZNSt12_Vector_baseISsSaISsEEC2EjRKS0_ @3079
    _ZNSt12_Vector_baseISsSaISsEEC2Ev @3080
    _ZNSt12_Vector_baseISsSaISsEED2Ev @3081
    _ZNSt13move_iteratorIPPN11DataManager8DataBase14ProcessHandlerEEC1ES4_ @3082
    _ZNSt13move_iteratorIPPN11DataManager8DataBase16DataBaseTemplateEEC1ES4_ @3083
    _ZNSt13move_iteratorIPPN11DataManager8Panorama17WorkflowProcesses15WorkflowProcessEEC1ES5_ @3084
    _ZNSt13move_iteratorIPPN11DataManager8Panorama17WorkflowProcesses8ActivityEEC1ES5_ @3085
    _ZNSt13move_iteratorIPPN14WorkflowEngine6Idioma13ItemInterfaceEEC1ES4_ @3086
    _ZNSt13move_iteratorIPPN14WorkflowEngine6Idioma9ParameterEEC1ES4_ @3087
    _ZNSt13move_iteratorIPPN14WorkflowEngine8Criteria4Core14WorkFlowThreadEEC1ES5_ @3088
    _ZNSt13move_iteratorIPPN14WorkflowEngine8Criteria4Core9IWorkflowEEC1ES5_ @3089
    _ZNSt13move_iteratorIPPN14WorkflowEngine8Criteria5Event13EventListenerEEC1ES5_ @3090
    _ZNSt13move_iteratorIPPN3bOS3SQL8SQLTableEEC1ES4_ @3091
    _ZNSt13move_iteratorIPSsEC1ES0_ @3092
    _ZNSt13move_iteratorIPSsEppEv @3093
    _ZNSt16allocator_traitsISaIN14WorkflowEngine14WorkflowActionEEE10deallocateERS2_PS1_j @3094
    _ZNSt16allocator_traitsISaIN14WorkflowEngine14WorkflowActionEEE7destroyIS1_EEvRS2_PT_ @3095
    _ZNSt16allocator_traitsISaIN14WorkflowEngine14WorkflowActionEEE8allocateERS2_j @3096
    _ZNSt16allocator_traitsISaIN14WorkflowEngine14WorkflowActionEEE8max_sizeERKS2_ @3097
    _ZNSt16allocator_traitsISaIN14WorkflowEngine14WorkflowActionEEE9constructIS1_JS1_EEEvRS2_PT_DpOT0_ @3098
    _ZNSt16allocator_traitsISaIPN11DataManager8DataBase14ProcessHandlerEEE10deallocateERS4_PS3_j @3099
    _ZNSt16allocator_traitsISaIPN11DataManager8DataBase14ProcessHandlerEEE7destroyIS3_EEvRS4_PT_ @3100
    _ZNSt16allocator_traitsISaIPN11DataManager8DataBase14ProcessHandlerEEE8allocateERS4_j @3101
    _ZNSt16allocator_traitsISaIPN11DataManager8DataBase14ProcessHandlerEEE8max_sizeERKS4_ @3102
    _ZNSt16allocator_traitsISaIPN11DataManager8DataBase14ProcessHandlerEEE9constructIS3_JS3_EEEvRS4_PT_DpOT0_ @3103
    _ZNSt16allocator_traitsISaIPN11DataManager8DataBase16DataBaseTemplateEEE10deallocateERS4_PS3_j @3104
    _ZNSt16allocator_traitsISaIPN11DataManager8DataBase16DataBaseTemplateEEE7destroyIS3_EEvRS4_PT_ @3105
    _ZNSt16allocator_traitsISaIPN11DataManager8DataBase16DataBaseTemplateEEE8allocateERS4_j @3106
    _ZNSt16allocator_traitsISaIPN11DataManager8DataBase16DataBaseTemplateEEE8max_sizeERKS4_ @3107
    _ZNSt16allocator_traitsISaIPN11DataManager8DataBase16DataBaseTemplateEEE9constructIS3_JRKS3_EEEvRS4_PT_DpOT0_ @3108
    _ZNSt16allocator_traitsISaIPN11DataManager8Panorama17WorkflowProcesses15WorkflowProcessEEE10deallocateERS5_PS4_j @3109
    _ZNSt16allocator_traitsISaIPN11DataManager8Panorama17WorkflowProcesses15WorkflowProcessEEE7destroyIS4_EEvRS5_PT_ @3110
    _ZNSt16allocator_traitsISaIPN11DataManager8Panorama17WorkflowProcesses15WorkflowProcessEEE8allocateERS5_j @3111
    _ZNSt16allocator_traitsISaIPN11DataManager8Panorama17WorkflowProcesses15WorkflowProcessEEE8max_sizeERKS5_ @3112
    _ZNSt16allocator_traitsISaIPN11DataManager8Panorama17WorkflowProcesses15WorkflowProcessEEE9constructIS4_JRKS4_EEEvRS5_PT_DpOT0_ @3113
    _ZNSt16allocator_traitsISaIPN11DataManager8Panorama17WorkflowProcesses8ActivityEEE10deallocateERS5_PS4_j @3114
    _ZNSt16allocator_traitsISaIPN11DataManager8Panorama17WorkflowProcesses8ActivityEEE7destroyIS4_EEvRS5_PT_ @3115
    _ZNSt16allocator_traitsISaIPN11DataManager8Panorama17WorkflowProcesses8ActivityEEE8allocateERS5_j @3116
    _ZNSt16allocator_traitsISaIPN11DataManager8Panorama17WorkflowProcesses8ActivityEEE8max_sizeERKS5_ @3117
    _ZNSt16allocator_traitsISaIPN11DataManager8Panorama17WorkflowProcesses8ActivityEEE9constructIS4_JRKS4_EEEvRS5_PT_DpOT0_ @3118
    _ZNSt16allocator_traitsISaIPN14WorkflowEngine6Idioma13ItemInterfaceEEE10deallocateERS4_PS3_j @3119
    _ZNSt16allocator_traitsISaIPN14WorkflowEngine6Idioma13ItemInterfaceEEE7destroyIS3_EEvRS4_PT_ @3120
    _ZNSt16allocator_traitsISaIPN14WorkflowEngine6Idioma13ItemInterfaceEEE8allocateERS4_j @3121
    _ZNSt16allocator_traitsISaIPN14WorkflowEngine6Idioma13ItemInterfaceEEE8max_sizeERKS4_ @3122
    _ZNSt16allocator_traitsISaIPN14WorkflowEngine6Idioma13ItemInterfaceEEE9constructIS3_JS3_EEEvRS4_PT_DpOT0_ @3123
    _ZNSt16allocator_traitsISaIPN14WorkflowEngine6Idioma9ParameterEEE10deallocateERS4_PS3_j @3124
    _ZNSt16allocator_traitsISaIPN14WorkflowEngine6Idioma9ParameterEEE7destroyIS3_EEvRS4_PT_ @3125
    _ZNSt16allocator_traitsISaIPN14WorkflowEngine6Idioma9ParameterEEE8allocateERS4_j @3126
    _ZNSt16allocator_traitsISaIPN14WorkflowEngine6Idioma9ParameterEEE8max_sizeERKS4_ @3127
    _ZNSt16allocator_traitsISaIPN14WorkflowEngine6Idioma9ParameterEEE9constructIS3_JRKS3_EEEvRS4_PT_DpOT0_ @3128
    _ZNSt16allocator_traitsISaIPN14WorkflowEngine8Criteria4Core14WorkFlowThreadEEE10deallocateERS5_PS4_j @3129
    _ZNSt16allocator_traitsISaIPN14WorkflowEngine8Criteria4Core14WorkFlowThreadEEE7destroyIS4_EEvRS5_PT_ @3130
    _ZNSt16allocator_traitsISaIPN14WorkflowEngine8Criteria4Core14WorkFlowThreadEEE8allocateERS5_j @3131
    _ZNSt16allocator_traitsISaIPN14WorkflowEngine8Criteria4Core14WorkFlowThreadEEE8max_sizeERKS5_ @3132
    _ZNSt16allocator_traitsISaIPN14WorkflowEngine8Criteria4Core14WorkFlowThreadEEE9constructIS4_JRKS4_EEEvRS5_PT_DpOT0_ @3133
    _ZNSt16allocator_traitsISaIPN14WorkflowEngine8Criteria4Core9IWorkflowEEE10deallocateERS5_PS4_j @3134
    _ZNSt16allocator_traitsISaIPN14WorkflowEngine8Criteria4Core9IWorkflowEEE37select_on_container_copy_constructionERKS5_ @3135
    _ZNSt16allocator_traitsISaIPN14WorkflowEngine8Criteria4Core9IWorkflowEEE7destroyIS4_EEvRS5_PT_ @3136
    _ZNSt16allocator_traitsISaIPN14WorkflowEngine8Criteria4Core9IWorkflowEEE8allocateERS5_j @3137
    _ZNSt16allocator_traitsISaIPN14WorkflowEngine8Criteria4Core9IWorkflowEEE8max_sizeERKS5_ @3138
    _ZNSt16allocator_traitsISaIPN14WorkflowEngine8Criteria4Core9IWorkflowEEE9constructIS4_JRKS4_EEEvRS5_PT_DpOT0_ @3139
    _ZNSt16allocator_traitsISaIPN14WorkflowEngine8Criteria5Event13EventListenerEEE10deallocateERS5_PS4_j @3140
    _ZNSt16allocator_traitsISaIPN14WorkflowEngine8Criteria5Event13EventListenerEEE7destroyIS4_EEvRS5_PT_ @3141
    _ZNSt16allocator_traitsISaIPN14WorkflowEngine8Criteria5Event13EventListenerEEE8allocateERS5_j @3142
    _ZNSt16allocator_traitsISaIPN14WorkflowEngine8Criteria5Event13EventListenerEEE8max_sizeERKS5_ @3143
    _ZNSt16allocator_traitsISaIPN14WorkflowEngine8Criteria5Event13EventListenerEEE9constructIS4_JRKS4_EEEvRS5_PT_DpOT0_ @3144
    _ZNSt16allocator_traitsISaIPN3bOS11Collections15CollectionEntryEEE10deallocateERS4_PS3_j @3145
    _ZNSt16allocator_traitsISaIPN3bOS11Collections15CollectionEntryEEE8allocateERS4_j @3146
    _ZNSt16allocator_traitsISaIPN3bOS3SQL8SQLTableEEE10deallocateERS4_PS3_j @3147
    _ZNSt16allocator_traitsISaIPN3bOS3SQL8SQLTableEEE37select_on_container_copy_constructionERKS4_ @3148
    _ZNSt16allocator_traitsISaIPN3bOS3SQL8SQLTableEEE7destroyIS3_EEvRS4_PT_ @3149
    _ZNSt16allocator_traitsISaIPN3bOS3SQL8SQLTableEEE8allocateERS4_j @3150
    _ZNSt16allocator_traitsISaIPN3bOS3SQL8SQLTableEEE8max_sizeERKS4_ @3151
    _ZNSt16allocator_traitsISaIPN3bOS3SQL8SQLTableEEE9constructIS3_JS3_EEEvRS4_PT_DpOT0_ @3152
    _ZNSt16allocator_traitsISaISsEE10deallocateERS0_PSsj @3153
    _ZNSt16allocator_traitsISaISsEE37select_on_container_copy_constructionERKS0_ @3154
    _ZNSt16allocator_traitsISaISsEE7destroyISsEEvRS0_PT_ @3155
    _ZNSt16allocator_traitsISaISsEE8allocateERS0_j @3156
    _ZNSt16allocator_traitsISaISsEE8max_sizeERKS0_ @3157
    _ZNSt16allocator_traitsISaISsEE9constructISsJRKSsEEEvRS0_PT_DpOT0_ @3158
    _ZNSt16allocator_traitsISaISsEE9constructISsJSsEEEvRS0_PT_DpOT0_ @3159
    _ZNSt20__uninitialized_copyILb0EE13__uninit_copyIN9__gnu_cxx17__normal_iteratorIPKSsSt6vectorISsSaISsEEEEPSsEET0_T_SC_SB_ @3160
    _ZNSt20__uninitialized_copyILb0EE13__uninit_copyIPN14WorkflowEngine14WorkflowActionES4_EET0_T_S6_S5_ @3161
    _ZNSt20__uninitialized_copyILb0EE13__uninit_copyISt13move_iteratorIPSsES3_EET0_T_S6_S5_ @3162
    _ZNSt20__uninitialized_copyILb1EE13__uninit_copyIN9__gnu_cxx17__normal_iteratorIPKPN14WorkflowEngine8Criteria4Core9IWorkflowESt6vectorIS8_SaIS8_EEEEPS8_EET0_T_SH_SG_ @3163
    _ZNSt20__uninitialized_copyILb1EE13__uninit_copyIN9__gnu_cxx17__normal_iteratorIPKPN3bOS11Collections15CollectionEntryESt6vectorIS7_SaIS7_EEEEPS7_EET0_T_SG_SF_ @3164
    _ZNSt20__uninitialized_copyILb1EE13__uninit_copyIN9__gnu_cxx17__normal_iteratorIPKPN3bOS3SQL8SQLTableESt6vectorIS7_SaIS7_EEEEPS7_EET0_T_SG_SF_ @3165
    _ZNSt20__uninitialized_copyILb1EE13__uninit_copyIPPN3bOS11Collections15CollectionEntryES6_EET0_T_S8_S7_ @3166
    _ZNSt20__uninitialized_copyILb1EE13__uninit_copyIPPN3bOS3SQL8SQLTableES6_EET0_T_S8_S7_ @3167
    _ZNSt20__uninitialized_copyILb1EE13__uninit_copyISt13move_iteratorIPPN11DataManager8DataBase14ProcessHandlerEES7_EET0_T_SA_S9_ @3168
    _ZNSt20__uninitialized_copyILb1EE13__uninit_copyISt13move_iteratorIPPN11DataManager8DataBase16DataBaseTemplateEES7_EET0_T_SA_S9_ @3169
    _ZNSt20__uninitialized_copyILb1EE13__uninit_copyISt13move_iteratorIPPN11DataManager8Panorama17WorkflowProcesses15WorkflowProcessEES8_EET0_T_SB_SA_ @3170
    _ZNSt20__uninitialized_copyILb1EE13__uninit_copyISt13move_iteratorIPPN11DataManager8Panorama17WorkflowProcesses8ActivityEES8_EET0_T_SB_SA_ @3171
    _ZNSt20__uninitialized_copyILb1EE13__uninit_copyISt13move_iteratorIPPN14WorkflowEngine6Idioma13ItemInterfaceEES7_EET0_T_SA_S9_ @3172
    _ZNSt20__uninitialized_copyILb1EE13__uninit_copyISt13move_iteratorIPPN14WorkflowEngine6Idioma9ParameterEES7_EET0_T_SA_S9_ @3173
    _ZNSt20__uninitialized_copyILb1EE13__uninit_copyISt13move_iteratorIPPN14WorkflowEngine8Criteria4Core14WorkFlowThreadEES8_EET0_T_SB_SA_ @3174
    _ZNSt20__uninitialized_copyILb1EE13__uninit_copyISt13move_iteratorIPPN14WorkflowEngine8Criteria4Core9IWorkflowEES8_EET0_T_SB_SA_ @3175
    _ZNSt20__uninitialized_copyILb1EE13__uninit_copyISt13move_iteratorIPPN14WorkflowEngine8Criteria5Event13EventListenerEES8_EET0_T_SB_SA_ @3176
    _ZNSt20__uninitialized_copyILb1EE13__uninit_copyISt13move_iteratorIPPN3bOS3SQL8SQLTableEES7_EET0_T_SA_S9_ @3177
    _ZNSt6vectorIN14WorkflowEngine14WorkflowActionESaIS1_EE12emplace_backIJS1_EEEvDpOT_ @3178
    _ZNSt6vectorIN14WorkflowEngine14WorkflowActionESaIS1_EE15_M_erase_at_endEPS1_ @3179
    _ZNSt6vectorIN14WorkflowEngine14WorkflowActionESaIS1_EE19_M_emplace_back_auxIJS1_EEEvDpOT_ @3180
    _ZNSt6vectorIN14WorkflowEngine14WorkflowActionESaIS1_EE2atEj @3181
    _ZNSt6vectorIN14WorkflowEngine14WorkflowActionESaIS1_EE5clearEv @3182
    _ZNSt6vectorIN14WorkflowEngine14WorkflowActionESaIS1_EE9push_backEOS1_ @3183
    _ZNSt6vectorIN14WorkflowEngine14WorkflowActionESaIS1_EEC1Ev @3184
    _ZNSt6vectorIN14WorkflowEngine14WorkflowActionESaIS1_EED1Ev @3185
    _ZNSt6vectorIN14WorkflowEngine14WorkflowActionESaIS1_EEixEj @3186
    _ZNSt6vectorIPN11DataManager8DataBase14ProcessHandlerESaIS3_EE12emplace_backIJS3_EEEvDpOT_ @3187
    _ZNSt6vectorIPN11DataManager8DataBase14ProcessHandlerESaIS3_EE19_M_emplace_back_auxIJS3_EEEvDpOT_ @3188
    _ZNSt6vectorIPN11DataManager8DataBase14ProcessHandlerESaIS3_EE2atEj @3189
    _ZNSt6vectorIPN11DataManager8DataBase14ProcessHandlerESaIS3_EE3endEv @3190
    _ZNSt6vectorIPN11DataManager8DataBase14ProcessHandlerESaIS3_EE5beginEv @3191
    _ZNSt6vectorIPN11DataManager8DataBase14ProcessHandlerESaIS3_EE5eraseEN9__gnu_cxx17__normal_iteratorIPKS3_S5_EE @3192
    _ZNSt6vectorIPN11DataManager8DataBase14ProcessHandlerESaIS3_EE8_M_eraseEN9__gnu_cxx17__normal_iteratorIPS3_S5_EE @3193
    _ZNSt6vectorIPN11DataManager8DataBase14ProcessHandlerESaIS3_EE9push_backEOS3_ @3194
    _ZNSt6vectorIPN11DataManager8DataBase14ProcessHandlerESaIS3_EEC1Ev @3195
    _ZNSt6vectorIPN11DataManager8DataBase14ProcessHandlerESaIS3_EED1Ev @3196
    _ZNSt6vectorIPN11DataManager8DataBase14ProcessHandlerESaIS3_EEixEj @3197
    _ZNSt6vectorIPN11DataManager8DataBase16DataBaseTemplateESaIS3_EE15_M_erase_at_endEPS3_ @3198
    _ZNSt6vectorIPN11DataManager8DataBase16DataBaseTemplateESaIS3_EE19_M_emplace_back_auxIJRKS3_EEEvDpOT_ @3199
    _ZNSt6vectorIPN11DataManager8DataBase16DataBaseTemplateESaIS3_EE2atEj @3200
    _ZNSt6vectorIPN11DataManager8DataBase16DataBaseTemplateESaIS3_EE5clearEv @3201
    _ZNSt6vectorIPN11DataManager8DataBase16DataBaseTemplateESaIS3_EE9push_backERKS3_ @3202
    _ZNSt6vectorIPN11DataManager8DataBase16DataBaseTemplateESaIS3_EEC1Ev @3203
    _ZNSt6vectorIPN11DataManager8DataBase16DataBaseTemplateESaIS3_EED1Ev @3204
    _ZNSt6vectorIPN11DataManager8DataBase16DataBaseTemplateESaIS3_EEixEj @3205
    _ZNSt6vectorIPN11DataManager8Panorama17WorkflowProcesses15WorkflowProcessESaIS4_EE19_M_emplace_back_auxIJRKS4_EEEvDpOT_ @3206
    _ZNSt6vectorIPN11DataManager8Panorama17WorkflowProcesses15WorkflowProcessESaIS4_EE2atEj @3207
    _ZNSt6vectorIPN11DataManager8Panorama17WorkflowProcesses15WorkflowProcessESaIS4_EE9push_backERKS4_ @3208
    _ZNSt6vectorIPN11DataManager8Panorama17WorkflowProcesses15WorkflowProcessESaIS4_EEC1Ev @3209
    _ZNSt6vectorIPN11DataManager8Panorama17WorkflowProcesses15WorkflowProcessESaIS4_EED1Ev @3210
    _ZNSt6vectorIPN11DataManager8Panorama17WorkflowProcesses15WorkflowProcessESaIS4_EEixEj @3211
    _ZNSt6vectorIPN11DataManager8Panorama17WorkflowProcesses8ActivityESaIS4_EE19_M_emplace_back_auxIJRKS4_EEEvDpOT_ @3212
    _ZNSt6vectorIPN11DataManager8Panorama17WorkflowProcesses8ActivityESaIS4_EE2atEj @3213
    _ZNSt6vectorIPN11DataManager8Panorama17WorkflowProcesses8ActivityESaIS4_EE9push_backERKS4_ @3214
    _ZNSt6vectorIPN11DataManager8Panorama17WorkflowProcesses8ActivityESaIS4_EEC1Ev @3215
    _ZNSt6vectorIPN11DataManager8Panorama17WorkflowProcesses8ActivityESaIS4_EED1Ev @3216
    _ZNSt6vectorIPN11DataManager8Panorama17WorkflowProcesses8ActivityESaIS4_EEixEj @3217
    _ZNSt6vectorIPN14WorkflowEngine6Idioma13ItemInterfaceESaIS3_EE12emplace_backIJS3_EEEvDpOT_ @3218
    _ZNSt6vectorIPN14WorkflowEngine6Idioma13ItemInterfaceESaIS3_EE15_M_erase_at_endEPS3_ @3219
    _ZNSt6vectorIPN14WorkflowEngine6Idioma13ItemInterfaceESaIS3_EE19_M_emplace_back_auxIJS3_EEEvDpOT_ @3220
    _ZNSt6vectorIPN14WorkflowEngine6Idioma13ItemInterfaceESaIS3_EE2atEj @3221
    _ZNSt6vectorIPN14WorkflowEngine6Idioma13ItemInterfaceESaIS3_EE3endEv @3222
    _ZNSt6vectorIPN14WorkflowEngine6Idioma13ItemInterfaceESaIS3_EE5beginEv @3223
    _ZNSt6vectorIPN14WorkflowEngine6Idioma13ItemInterfaceESaIS3_EE5clearEv @3224
    _ZNSt6vectorIPN14WorkflowEngine6Idioma13ItemInterfaceESaIS3_EE9push_backEOS3_ @3225
    _ZNSt6vectorIPN14WorkflowEngine6Idioma13ItemInterfaceESaIS3_EEC1Ev @3226
    _ZNSt6vectorIPN14WorkflowEngine6Idioma13ItemInterfaceESaIS3_EED1Ev @3227
    _ZNSt6vectorIPN14WorkflowEngine6Idioma13ItemInterfaceESaIS3_EEixEj @3228
    _ZNSt6vectorIPN14WorkflowEngine6Idioma9ParameterESaIS3_EE15_M_erase_at_endEPS3_ @3229
    _ZNSt6vectorIPN14WorkflowEngine6Idioma9ParameterESaIS3_EE19_M_emplace_back_auxIJRKS3_EEEvDpOT_ @3230
    _ZNSt6vectorIPN14WorkflowEngine6Idioma9ParameterESaIS3_EE2atEj @3231
    _ZNSt6vectorIPN14WorkflowEngine6Idioma9ParameterESaIS3_EE3endEv @3232
    _ZNSt6vectorIPN14WorkflowEngine6Idioma9ParameterESaIS3_EE5beginEv @3233
    _ZNSt6vectorIPN14WorkflowEngine6Idioma9ParameterESaIS3_EE5clearEv @3234
    _ZNSt6vectorIPN14WorkflowEngine6Idioma9ParameterESaIS3_EE9push_backERKS3_ @3235
    _ZNSt6vectorIPN14WorkflowEngine6Idioma9ParameterESaIS3_EEC1Ev @3236
    _ZNSt6vectorIPN14WorkflowEngine6Idioma9ParameterESaIS3_EED1Ev @3237
    _ZNSt6vectorIPN14WorkflowEngine6Idioma9ParameterESaIS3_EEixEj @3238
    _ZNSt6vectorIPN14WorkflowEngine8Criteria4Core14WorkFlowThreadESaIS4_EE15_M_erase_at_endEPS4_ @3239
    _ZNSt6vectorIPN14WorkflowEngine8Criteria4Core14WorkFlowThreadESaIS4_EE19_M_emplace_back_auxIJRKS4_EEEvDpOT_ @3240
    _ZNSt6vectorIPN14WorkflowEngine8Criteria4Core14WorkFlowThreadESaIS4_EE3endEv @3241
    _ZNSt6vectorIPN14WorkflowEngine8Criteria4Core14WorkFlowThreadESaIS4_EE5beginEv @3242
    _ZNSt6vectorIPN14WorkflowEngine8Criteria4Core14WorkFlowThreadESaIS4_EE5clearEv @3243
    _ZNSt6vectorIPN14WorkflowEngine8Criteria4Core14WorkFlowThreadESaIS4_EE9push_backERKS4_ @3244
    _ZNSt6vectorIPN14WorkflowEngine8Criteria4Core14WorkFlowThreadESaIS4_EEC1Ev @3245
    _ZNSt6vectorIPN14WorkflowEngine8Criteria4Core14WorkFlowThreadESaIS4_EED1Ev @3246
    _ZNSt6vectorIPN14WorkflowEngine8Criteria4Core9IWorkflowESaIS4_EE15_M_erase_at_endEPS4_ @3247
    _ZNSt6vectorIPN14WorkflowEngine8Criteria4Core9IWorkflowESaIS4_EE19_M_emplace_back_auxIJRKS4_EEEvDpOT_ @3248
    _ZNSt6vectorIPN14WorkflowEngine8Criteria4Core9IWorkflowESaIS4_EE2atEj @3249
    _ZNSt6vectorIPN14WorkflowEngine8Criteria4Core9IWorkflowESaIS4_EE3endEv @3250
    _ZNSt6vectorIPN14WorkflowEngine8Criteria4Core9IWorkflowESaIS4_EE5beginEv @3251
    _ZNSt6vectorIPN14WorkflowEngine8Criteria4Core9IWorkflowESaIS4_EE5clearEv @3252
    _ZNSt6vectorIPN14WorkflowEngine8Criteria4Core9IWorkflowESaIS4_EE5eraseEN9__gnu_cxx17__normal_iteratorIPKS4_S6_EE @3253
    _ZNSt6vectorIPN14WorkflowEngine8Criteria4Core9IWorkflowESaIS4_EE8_M_eraseEN9__gnu_cxx17__normal_iteratorIPS4_S6_EE @3254
    _ZNSt6vectorIPN14WorkflowEngine8Criteria4Core9IWorkflowESaIS4_EE9push_backERKS4_ @3255
    _ZNSt6vectorIPN14WorkflowEngine8Criteria4Core9IWorkflowESaIS4_EEC1ERKS6_ @3256
    _ZNSt6vectorIPN14WorkflowEngine8Criteria4Core9IWorkflowESaIS4_EEC1Ev @3257
    _ZNSt6vectorIPN14WorkflowEngine8Criteria4Core9IWorkflowESaIS4_EED1Ev @3258
    _ZNSt6vectorIPN14WorkflowEngine8Criteria4Core9IWorkflowESaIS4_EEixEj @3259
    _ZNSt6vectorIPN14WorkflowEngine8Criteria5Event13EventListenerESaIS4_EE19_M_emplace_back_auxIJRKS4_EEEvDpOT_ @3260
    _ZNSt6vectorIPN14WorkflowEngine8Criteria5Event13EventListenerESaIS4_EE3endEv @3261
    _ZNSt6vectorIPN14WorkflowEngine8Criteria5Event13EventListenerESaIS4_EE5beginEv @3262
    _ZNSt6vectorIPN14WorkflowEngine8Criteria5Event13EventListenerESaIS4_EE9push_backERKS4_ @3263
    _ZNSt6vectorIPN14WorkflowEngine8Criteria5Event13EventListenerESaIS4_EEC1Ev @3264
    _ZNSt6vectorIPN14WorkflowEngine8Criteria5Event13EventListenerESaIS4_EED1Ev @3265
    _ZNSt6vectorIPN3bOS11Collections15CollectionEntryESaIS3_EE15_M_erase_at_endEPS3_ @3266
    _ZNSt6vectorIPN3bOS11Collections15CollectionEntryESaIS3_EE20_M_allocate_and_copyIN9__gnu_cxx17__normal_iteratorIPKS3_S5_EEEEPS3_jT_SD_ @3267
    _ZNSt6vectorIPN3bOS11Collections15CollectionEntryESaIS3_EE3endEv @3268
    _ZNSt6vectorIPN3bOS11Collections15CollectionEntryESaIS3_EE5beginEv @3269
    _ZNSt6vectorIPN3bOS11Collections15CollectionEntryESaIS3_EE5clearEv @3270
    _ZNSt6vectorIPN3bOS11Collections15CollectionEntryESaIS3_EEaSERKS5_ @3271
    _ZNSt6vectorIPN3bOS3SQL10SQLCommandESaIS3_EE2atEj @3272
    _ZNSt6vectorIPN3bOS3SQL10SQLCommandESaIS3_EEixEj @3273
    _ZNSt6vectorIPN3bOS3SQL8SQLTableESaIS3_EE12emplace_backIJS3_EEEvDpOT_ @3274
    _ZNSt6vectorIPN3bOS3SQL8SQLTableESaIS3_EE15_M_erase_at_endEPS3_ @3275
    _ZNSt6vectorIPN3bOS3SQL8SQLTableESaIS3_EE19_M_emplace_back_auxIJS3_EEEvDpOT_ @3276
    _ZNSt6vectorIPN3bOS3SQL8SQLTableESaIS3_EE20_M_allocate_and_copyIN9__gnu_cxx17__normal_iteratorIPKS3_S5_EEEEPS3_jT_SD_ @3277
    _ZNSt6vectorIPN3bOS3SQL8SQLTableESaIS3_EE2atEj @3278
    _ZNSt6vectorIPN3bOS3SQL8SQLTableESaIS3_EE3endEv @3279
    _ZNSt6vectorIPN3bOS3SQL8SQLTableESaIS3_EE5beginEv @3280
    _ZNSt6vectorIPN3bOS3SQL8SQLTableESaIS3_EE5clearEv @3281
    _ZNSt6vectorIPN3bOS3SQL8SQLTableESaIS3_EE9push_backEOS3_ @3282
    _ZNSt6vectorIPN3bOS3SQL8SQLTableESaIS3_EEC1ERKS5_ @3283
    _ZNSt6vectorIPN3bOS3SQL8SQLTableESaIS3_EED1Ev @3284
    _ZNSt6vectorIPN3bOS3SQL8SQLTableESaIS3_EEaSERKS5_ @3285
    _ZNSt6vectorIPN3bOS3SQL8SQLTableESaIS3_EEixEj @3286
    _ZNSt6vectorISsSaISsEE12emplace_backIJSsEEEvDpOT_ @3287
    _ZNSt6vectorISsSaISsEE14_M_move_assignEOS1_St17integral_constantIbLb1EE @3288
    _ZNSt6vectorISsSaISsEE15_M_erase_at_endEPSs @3289
    _ZNSt6vectorISsSaISsEE19_M_emplace_back_auxIJRKSsEEEvDpOT_ @3290
    _ZNSt6vectorISsSaISsEE19_M_emplace_back_auxIJSsEEEvDpOT_ @3291
    _ZNSt6vectorISsSaISsEE2atEj @3292
    _ZNSt6vectorISsSaISsEE5clearEv @3293
    _ZNSt6vectorISsSaISsEE9push_backEOSs @3294
    _ZNSt6vectorISsSaISsEE9push_backERKSs @3295
    _ZNSt6vectorISsSaISsEEC1ERKS0_ @3296
    _ZNSt6vectorISsSaISsEEC1ERKS1_ @3297
    _ZNSt6vectorISsSaISsEEC1Ev @3298
    _ZNSt6vectorISsSaISsEED1Ev @3299
    _ZNSt6vectorISsSaISsEEaSEOS1_ @3300
    _ZNSt6vectorISsSaISsEEixEj @3301
    _ZSt10_ConstructIN14WorkflowEngine14WorkflowActionEJRS1_EEvPT_DpOT0_ @3302
    _ZSt10_ConstructISsJRKSsEEvPT_DpOT0_ @3303
    _ZSt10_ConstructISsJSsEEvPT_DpOT0_ @3304
    _ZSt11__addressofIN14WorkflowEngine14WorkflowActionEEPT_RS2_ @3305
    _ZSt11__addressofISsEPT_RS0_ @3306
    _ZSt12__miter_baseIN9__gnu_cxx17__normal_iteratorIPKPN14WorkflowEngine8Criteria4Core9IWorkflowESt6vectorIS6_SaIS6_EEEEENSt11_Miter_baseIT_E13iterator_typeESE_ @3307
    _ZSt12__miter_baseIN9__gnu_cxx17__normal_iteratorIPKPN3bOS11Collections15CollectionEntryESt6vectorIS5_SaIS5_EEEEENSt11_Miter_baseIT_E13iterator_typeESD_ @3308
    _ZSt12__miter_baseIN9__gnu_cxx17__normal_iteratorIPKPN3bOS3SQL8SQLTableESt6vectorIS5_SaIS5_EEEEENSt11_Miter_baseIT_E13iterator_typeESD_ @3309
    _ZSt12__miter_baseIN9__gnu_cxx17__normal_iteratorIPPN11DataManager8DataBase14ProcessHandlerESt6vectorIS5_SaIS5_EEEEENSt11_Miter_baseIT_E13iterator_typeESC_ @3310
    _ZSt12__miter_baseIN9__gnu_cxx17__normal_iteratorIPPN14WorkflowEngine8Criteria4Core9IWorkflowESt6vectorIS6_SaIS6_EEEEENSt11_Miter_baseIT_E13iterator_typeESD_ @3311
    _ZSt12__miter_baseIPPN3bOS11Collections15CollectionEntryEENSt11_Miter_baseIT_E13iterator_typeES6_ @3312
    _ZSt12__miter_baseIPPN3bOS3SQL8SQLTableEENSt11_Miter_baseIT_E13iterator_typeES6_ @3313
    _ZSt12__miter_baseISt13move_iteratorIPPN11DataManager8DataBase14ProcessHandlerEEENSt11_Miter_baseIT_E13iterator_typeES8_ @3314
    _ZSt12__miter_baseISt13move_iteratorIPPN11DataManager8DataBase16DataBaseTemplateEEENSt11_Miter_baseIT_E13iterator_typeES8_ @3315
    _ZSt12__miter_baseISt13move_iteratorIPPN11DataManager8Panorama17WorkflowProcesses15WorkflowProcessEEENSt11_Miter_baseIT_E13iterator_typeES9_ @3316
    _ZSt12__miter_baseISt13move_iteratorIPPN11DataManager8Panorama17WorkflowProcesses8ActivityEEENSt11_Miter_baseIT_E13iterator_typeES9_ @3317
    _ZSt12__miter_baseISt13move_iteratorIPPN14WorkflowEngine6Idioma13ItemInterfaceEEENSt11_Miter_baseIT_E13iterator_typeES8_ @3318
    _ZSt12__miter_baseISt13move_iteratorIPPN14WorkflowEngine6Idioma9ParameterEEENSt11_Miter_baseIT_E13iterator_typeES8_ @3319
    _ZSt12__miter_baseISt13move_iteratorIPPN14WorkflowEngine8Criteria4Core14WorkFlowThreadEEENSt11_Miter_baseIT_E13iterator_typeES9_ @3320
    _ZSt12__miter_baseISt13move_iteratorIPPN14WorkflowEngine8Criteria4Core9IWorkflowEEENSt11_Miter_baseIT_E13iterator_typeES9_ @3321
    _ZSt12__miter_baseISt13move_iteratorIPPN14WorkflowEngine8Criteria5Event13EventListenerEEENSt11_Miter_baseIT_E13iterator_typeES9_ @3322
    _ZSt12__miter_baseISt13move_iteratorIPPN3bOS3SQL8SQLTableEEENSt11_Miter_baseIT_E13iterator_typeES8_ @3323
    _ZSt12__niter_baseIN9__gnu_cxx17__normal_iteratorIPKPN14WorkflowEngine8Criteria4Core9IWorkflowESt6vectorIS6_SaIS6_EEEEENSt11_Niter_baseIT_E13iterator_typeESE_ @3324
    _ZSt12__niter_baseIN9__gnu_cxx17__normal_iteratorIPKPN3bOS11Collections15CollectionEntryESt6vectorIS5_SaIS5_EEEEENSt11_Niter_baseIT_E13iterator_typeESD_ @3325
    _ZSt12__niter_baseIN9__gnu_cxx17__normal_iteratorIPKPN3bOS3SQL8SQLTableESt6vectorIS5_SaIS5_EEEEENSt11_Niter_baseIT_E13iterator_typeESD_ @3326
    _ZSt12__niter_baseIN9__gnu_cxx17__normal_iteratorIPPN11DataManager8DataBase14ProcessHandlerESt6vectorIS5_SaIS5_EEEEENSt11_Niter_baseIT_E13iterator_typeESC_ @3327
    _ZSt12__niter_baseIN9__gnu_cxx17__normal_iteratorIPPN14WorkflowEngine8Criteria4Core9IWorkflowESt6vectorIS6_SaIS6_EEEEENSt11_Niter_baseIT_E13iterator_typeESD_ @3328
    _ZSt12__niter_baseIN9__gnu_cxx17__normal_iteratorIPPN3bOS11Collections15CollectionEntryESt6vectorIS5_SaIS5_EEEEENSt11_Niter_baseIT_E13iterator_typeESC_ @3329
    _ZSt12__niter_baseIN9__gnu_cxx17__normal_iteratorIPPN3bOS3SQL8SQLTableESt6vectorIS5_SaIS5_EEEEENSt11_Niter_baseIT_E13iterator_typeESC_ @3330
    _ZSt12__niter_baseIPPN11DataManager8DataBase14ProcessHandlerEENSt11_Niter_baseIT_E13iterator_typeES6_ @3331
    _ZSt12__niter_baseIPPN11DataManager8DataBase16DataBaseTemplateEENSt11_Niter_baseIT_E13iterator_typeES6_ @3332
    _ZSt12__niter_baseIPPN11DataManager8Panorama17WorkflowProcesses15WorkflowProcessEENSt11_Niter_baseIT_E13iterator_typeES7_ @3333
    _ZSt12__niter_baseIPPN11DataManager8Panorama17WorkflowProcesses8ActivityEENSt11_Niter_baseIT_E13iterator_typeES7_ @3334
    _ZSt12__niter_baseIPPN14WorkflowEngine6Idioma13ItemInterfaceEENSt11_Niter_baseIT_E13iterator_typeES6_ @3335
    _ZSt12__niter_baseIPPN14WorkflowEngine6Idioma9ParameterEENSt11_Niter_baseIT_E13iterator_typeES6_ @3336
    _ZSt12__niter_baseIPPN14WorkflowEngine8Criteria4Core14WorkFlowThreadEENSt11_Niter_baseIT_E13iterator_typeES7_ @3337
    _ZSt12__niter_baseIPPN14WorkflowEngine8Criteria4Core9IWorkflowEENSt11_Niter_baseIT_E13iterator_typeES7_ @3338
    _ZSt12__niter_baseIPPN14WorkflowEngine8Criteria5Event13EventListenerEENSt11_Niter_baseIT_E13iterator_typeES7_ @3339
    _ZSt12__niter_baseIPPN3bOS11Collections15CollectionEntryEENSt11_Niter_baseIT_E13iterator_typeES6_ @3340
    _ZSt12__niter_baseIPPN3bOS3SQL8SQLTableEENSt11_Niter_baseIT_E13iterator_typeES6_ @3341
    _ZSt13__copy_move_aILb0EPKPN14WorkflowEngine8Criteria4Core9IWorkflowEPS4_ET1_T0_S9_S8_ @3342
    _ZSt13__copy_move_aILb0EPKPN3bOS11Collections15CollectionEntryEPS3_ET1_T0_S8_S7_ @3343
    _ZSt13__copy_move_aILb0EPKPN3bOS3SQL8SQLTableEPS3_ET1_T0_S8_S7_ @3344
    _ZSt13__copy_move_aILb0EPPN3bOS11Collections15CollectionEntryES4_ET1_T0_S6_S5_ @3345
    _ZSt13__copy_move_aILb0EPPN3bOS3SQL8SQLTableES4_ET1_T0_S6_S5_ @3346
    _ZSt13__copy_move_aILb1EPPN11DataManager8DataBase14ProcessHandlerES4_ET1_T0_S6_S5_ @3347
    _ZSt13__copy_move_aILb1EPPN11DataManager8DataBase16DataBaseTemplateES4_ET1_T0_S6_S5_ @3348
    _ZSt13__copy_move_aILb1EPPN11DataManager8Panorama17WorkflowProcesses15WorkflowProcessES5_ET1_T0_S7_S6_ @3349
    _ZSt13__copy_move_aILb1EPPN11DataManager8Panorama17WorkflowProcesses8ActivityES5_ET1_T0_S7_S6_ @3350
    _ZSt13__copy_move_aILb1EPPN14WorkflowEngine6Idioma13ItemInterfaceES4_ET1_T0_S6_S5_ @3351
    _ZSt13__copy_move_aILb1EPPN14WorkflowEngine6Idioma9ParameterES4_ET1_T0_S6_S5_ @3352
    _ZSt13__copy_move_aILb1EPPN14WorkflowEngine8Criteria4Core14WorkFlowThreadES5_ET1_T0_S7_S6_ @3353
    _ZSt13__copy_move_aILb1EPPN14WorkflowEngine8Criteria4Core9IWorkflowES5_ET1_T0_S7_S6_ @3354
    _ZSt13__copy_move_aILb1EPPN14WorkflowEngine8Criteria5Event13EventListenerES5_ET1_T0_S7_S6_ @3355
    _ZSt13__copy_move_aILb1EPPN3bOS3SQL8SQLTableES4_ET1_T0_S6_S5_ @3356
    _ZSt14__copy_move_a2ILb0EN9__gnu_cxx17__normal_iteratorIPKPN14WorkflowEngine8Criteria4Core9IWorkflowESt6vectorIS6_SaIS6_EEEEPS6_ET1_T0_SF_SE_ @3357
    _ZSt14__copy_move_a2ILb0EN9__gnu_cxx17__normal_iteratorIPKPN3bOS11Collections15CollectionEntryESt6vectorIS5_SaIS5_EEEENS1_IPS5_SA_EEET1_T0_SF_SE_ @3358
    _ZSt14__copy_move_a2ILb0EN9__gnu_cxx17__normal_iteratorIPKPN3bOS11Collections15CollectionEntryESt6vectorIS5_SaIS5_EEEEPS5_ET1_T0_SE_SD_ @3359
    _ZSt14__copy_move_a2ILb0EN9__gnu_cxx17__normal_iteratorIPKPN3bOS3SQL8SQLTableESt6vectorIS5_SaIS5_EEEENS1_IPS5_SA_EEET1_T0_SF_SE_ @3360
    _ZSt14__copy_move_a2ILb0EN9__gnu_cxx17__normal_iteratorIPKPN3bOS3SQL8SQLTableESt6vectorIS5_SaIS5_EEEEPS5_ET1_T0_SE_SD_ @3361
    _ZSt14__copy_move_a2ILb0EPPN3bOS11Collections15CollectionEntryES4_ET1_T0_S6_S5_ @3362
    _ZSt14__copy_move_a2ILb0EPPN3bOS3SQL8SQLTableES4_ET1_T0_S6_S5_ @3363
    _ZSt14__copy_move_a2ILb1EN9__gnu_cxx17__normal_iteratorIPPN11DataManager8DataBase14ProcessHandlerESt6vectorIS5_SaIS5_EEEESA_ET1_T0_SC_SB_ @3364
    _ZSt14__copy_move_a2ILb1EN9__gnu_cxx17__normal_iteratorIPPN14WorkflowEngine8Criteria4Core9IWorkflowESt6vectorIS6_SaIS6_EEEESB_ET1_T0_SD_SC_ @3365
    _ZSt14__copy_move_a2ILb1EPPN11DataManager8DataBase14ProcessHandlerES4_ET1_T0_S6_S5_ @3366
    _ZSt14__copy_move_a2ILb1EPPN11DataManager8DataBase16DataBaseTemplateES4_ET1_T0_S6_S5_ @3367
    _ZSt14__copy_move_a2ILb1EPPN11DataManager8Panorama17WorkflowProcesses15WorkflowProcessES5_ET1_T0_S7_S6_ @3368
    _ZSt14__copy_move_a2ILb1EPPN11DataManager8Panorama17WorkflowProcesses8ActivityES5_ET1_T0_S7_S6_ @3369
    _ZSt14__copy_move_a2ILb1EPPN14WorkflowEngine6Idioma13ItemInterfaceES4_ET1_T0_S6_S5_ @3370
    _ZSt14__copy_move_a2ILb1EPPN14WorkflowEngine6Idioma9ParameterES4_ET1_T0_S6_S5_ @3371
    _ZSt14__copy_move_a2ILb1EPPN14WorkflowEngine8Criteria4Core14WorkFlowThreadES5_ET1_T0_S7_S6_ @3372
    _ZSt14__copy_move_a2ILb1EPPN14WorkflowEngine8Criteria4Core9IWorkflowES5_ET1_T0_S7_S6_ @3373
    _ZSt14__copy_move_a2ILb1EPPN14WorkflowEngine8Criteria5Event13EventListenerES5_ET1_T0_S7_S6_ @3374
    _ZSt14__copy_move_a2ILb1EPPN3bOS3SQL8SQLTableES4_ET1_T0_S6_S5_ @3375
    _ZSt15__alloc_on_copyISaIPN3bOS11Collections15CollectionEntryEEEvRT_RKS5_ @3376
    _ZSt15__alloc_on_copyISaIPN3bOS3SQL8SQLTableEEEvRT_RKS5_ @3377
    _ZSt15__alloc_on_moveISaISsEEvRT_S2_ @3378
    _ZSt18__do_alloc_on_copyISaIPN3bOS11Collections15CollectionEntryEEEvRT_RKS5_St17integral_constantIbLb0EE @3379
    _ZSt18__do_alloc_on_copyISaIPN3bOS3SQL8SQLTableEEEvRT_RKS5_St17integral_constantIbLb0EE @3380
    _ZSt18__do_alloc_on_moveISaISsEEvRT_S2_St17integral_constantIbLb1EE @3381
    _ZSt18uninitialized_copyIN9__gnu_cxx17__normal_iteratorIPKPN14WorkflowEngine8Criteria4Core9IWorkflowESt6vectorIS6_SaIS6_EEEEPS6_ET0_T_SF_SE_ @3382
    _ZSt18uninitialized_copyIN9__gnu_cxx17__normal_iteratorIPKPN3bOS11Collections15CollectionEntryESt6vectorIS5_SaIS5_EEEEPS5_ET0_T_SE_SD_ @3383
    _ZSt18uninitialized_copyIN9__gnu_cxx17__normal_iteratorIPKPN3bOS3SQL8SQLTableESt6vectorIS5_SaIS5_EEEEPS5_ET0_T_SE_SD_ @3384
    _ZSt18uninitialized_copyIN9__gnu_cxx17__normal_iteratorIPKSsSt6vectorISsSaISsEEEEPSsET0_T_SA_S9_ @3385
    _ZSt18uninitialized_copyIPN14WorkflowEngine14WorkflowActionES2_ET0_T_S4_S3_ @3386
    _ZSt18uninitialized_copyIPPN3bOS11Collections15CollectionEntryES4_ET0_T_S6_S5_ @3387
    _ZSt18uninitialized_copyIPPN3bOS3SQL8SQLTableES4_ET0_T_S6_S5_ @3388
    _ZSt18uninitialized_copyISt13move_iteratorIPPN11DataManager8DataBase14ProcessHandlerEES5_ET0_T_S8_S7_ @3389
    _ZSt18uninitialized_copyISt13move_iteratorIPPN11DataManager8DataBase16DataBaseTemplateEES5_ET0_T_S8_S7_ @3390
    _ZSt18uninitialized_copyISt13move_iteratorIPPN11DataManager8Panorama17WorkflowProcesses15WorkflowProcessEES6_ET0_T_S9_S8_ @3391
    _ZSt18uninitialized_copyISt13move_iteratorIPPN11DataManager8Panorama17WorkflowProcesses8ActivityEES6_ET0_T_S9_S8_ @3392
    _ZSt18uninitialized_copyISt13move_iteratorIPPN14WorkflowEngine6Idioma13ItemInterfaceEES5_ET0_T_S8_S7_ @3393
    _ZSt18uninitialized_copyISt13move_iteratorIPPN14WorkflowEngine6Idioma9ParameterEES5_ET0_T_S8_S7_ @3394
    _ZSt18uninitialized_copyISt13move_iteratorIPPN14WorkflowEngine8Criteria4Core14WorkFlowThreadEES6_ET0_T_S9_S8_ @3395
    _ZSt18uninitialized_copyISt13move_iteratorIPPN14WorkflowEngine8Criteria4Core9IWorkflowEES6_ET0_T_S9_S8_ @3396
    _ZSt18uninitialized_copyISt13move_iteratorIPPN14WorkflowEngine8Criteria5Event13EventListenerEES6_ET0_T_S9_S8_ @3397
    _ZSt18uninitialized_copyISt13move_iteratorIPPN3bOS3SQL8SQLTableEES5_ET0_T_S8_S7_ @3398
    _ZSt18uninitialized_copyISt13move_iteratorIPSsES1_ET0_T_S4_S3_ @3399
    _ZSt22__uninitialized_copy_aIN9__gnu_cxx17__normal_iteratorIPKPN14WorkflowEngine8Criteria4Core9IWorkflowESt6vectorIS6_SaIS6_EEEEPS6_S6_ET0_T_SF_SE_RSaIT1_E @3400
    _ZSt22__uninitialized_copy_aIN9__gnu_cxx17__normal_iteratorIPKPN3bOS11Collections15CollectionEntryESt6vectorIS5_SaIS5_EEEEPS5_S5_ET0_T_SE_SD_RSaIT1_E @3401
    _ZSt22__uninitialized_copy_aIN9__gnu_cxx17__normal_iteratorIPKPN3bOS3SQL8SQLTableESt6vectorIS5_SaIS5_EEEEPS5_S5_ET0_T_SE_SD_RSaIT1_E @3402
    _ZSt22__uninitialized_copy_aIN9__gnu_cxx17__normal_iteratorIPKSsSt6vectorISsSaISsEEEEPSsSsET0_T_SA_S9_RSaIT1_E @3403
    _ZSt22__uninitialized_copy_aIPN14WorkflowEngine14WorkflowActionES2_S1_ET0_T_S4_S3_RSaIT1_E @3404
    _ZSt22__uninitialized_copy_aIPPN3bOS11Collections15CollectionEntryES4_S3_ET0_T_S6_S5_RSaIT1_E @3405
    _ZSt22__uninitialized_copy_aIPPN3bOS3SQL8SQLTableES4_S3_ET0_T_S6_S5_RSaIT1_E @3406
    _ZSt22__uninitialized_copy_aISt13move_iteratorIPPN11DataManager8DataBase14ProcessHandlerEES5_S4_ET0_T_S8_S7_RSaIT1_E @3407
    _ZSt22__uninitialized_copy_aISt13move_iteratorIPPN11DataManager8DataBase16DataBaseTemplateEES5_S4_ET0_T_S8_S7_RSaIT1_E @3408
    _ZSt22__uninitialized_copy_aISt13move_iteratorIPPN11DataManager8Panorama17WorkflowProcesses15WorkflowProcessEES6_S5_ET0_T_S9_S8_RSaIT1_E @3409
    _ZSt22__uninitialized_copy_aISt13move_iteratorIPPN11DataManager8Panorama17WorkflowProcesses8ActivityEES6_S5_ET0_T_S9_S8_RSaIT1_E @3410
    _ZSt22__uninitialized_copy_aISt13move_iteratorIPPN14WorkflowEngine6Idioma13ItemInterfaceEES5_S4_ET0_T_S8_S7_RSaIT1_E @3411
    _ZSt22__uninitialized_copy_aISt13move_iteratorIPPN14WorkflowEngine6Idioma9ParameterEES5_S4_ET0_T_S8_S7_RSaIT1_E @3412
    _ZSt22__uninitialized_copy_aISt13move_iteratorIPPN14WorkflowEngine8Criteria4Core14WorkFlowThreadEES6_S5_ET0_T_S9_S8_RSaIT1_E @3413
    _ZSt22__uninitialized_copy_aISt13move_iteratorIPPN14WorkflowEngine8Criteria4Core9IWorkflowEES6_S5_ET0_T_S9_S8_RSaIT1_E @3414
    _ZSt22__uninitialized_copy_aISt13move_iteratorIPPN14WorkflowEngine8Criteria5Event13EventListenerEES6_S5_ET0_T_S9_S8_RSaIT1_E @3415
    _ZSt22__uninitialized_copy_aISt13move_iteratorIPPN3bOS3SQL8SQLTableEES5_S4_ET0_T_S8_S7_RSaIT1_E @3416
    _ZSt22__uninitialized_copy_aISt13move_iteratorIPSsES1_SsET0_T_S4_S3_RSaIT1_E @3417
    _ZSt32__make_move_if_noexcept_iteratorIPN14WorkflowEngine14WorkflowActionES2_ET0_T_ @3418
    _ZSt32__make_move_if_noexcept_iteratorIPPN11DataManager8DataBase14ProcessHandlerESt13move_iteratorIS4_EET0_T_ @3419
    _ZSt32__make_move_if_noexcept_iteratorIPPN11DataManager8DataBase16DataBaseTemplateESt13move_iteratorIS4_EET0_T_ @3420
    _ZSt32__make_move_if_noexcept_iteratorIPPN11DataManager8Panorama17WorkflowProcesses15WorkflowProcessESt13move_iteratorIS5_EET0_T_ @3421
    _ZSt32__make_move_if_noexcept_iteratorIPPN11DataManager8Panorama17WorkflowProcesses8ActivityESt13move_iteratorIS5_EET0_T_ @3422
    _ZSt32__make_move_if_noexcept_iteratorIPPN14WorkflowEngine6Idioma13ItemInterfaceESt13move_iteratorIS4_EET0_T_ @3423
    _ZSt32__make_move_if_noexcept_iteratorIPPN14WorkflowEngine6Idioma9ParameterESt13move_iteratorIS4_EET0_T_ @3424
    _ZSt32__make_move_if_noexcept_iteratorIPPN14WorkflowEngine8Criteria4Core14WorkFlowThreadESt13move_iteratorIS5_EET0_T_ @3425
    _ZSt32__make_move_if_noexcept_iteratorIPPN14WorkflowEngine8Criteria4Core9IWorkflowESt13move_iteratorIS5_EET0_T_ @3426
    _ZSt32__make_move_if_noexcept_iteratorIPPN14WorkflowEngine8Criteria5Event13EventListenerESt13move_iteratorIS5_EET0_T_ @3427
    _ZSt32__make_move_if_noexcept_iteratorIPPN3bOS3SQL8SQLTableESt13move_iteratorIS4_EET0_T_ @3428
    _ZSt32__make_move_if_noexcept_iteratorIPSsSt13move_iteratorIS0_EET0_T_ @3429
    _ZSt34__uninitialized_move_if_noexcept_aIPN14WorkflowEngine14WorkflowActionES2_SaIS1_EET0_T_S5_S4_RT1_ @3430
    _ZSt34__uninitialized_move_if_noexcept_aIPPN11DataManager8DataBase14ProcessHandlerES4_SaIS3_EET0_T_S7_S6_RT1_ @3431
    _ZSt34__uninitialized_move_if_noexcept_aIPPN11DataManager8DataBase16DataBaseTemplateES4_SaIS3_EET0_T_S7_S6_RT1_ @3432
    _ZSt34__uninitialized_move_if_noexcept_aIPPN11DataManager8Panorama17WorkflowProcesses15WorkflowProcessES5_SaIS4_EET0_T_S8_S7_RT1_ @3433
    _ZSt34__uninitialized_move_if_noexcept_aIPPN11DataManager8Panorama17WorkflowProcesses8ActivityES5_SaIS4_EET0_T_S8_S7_RT1_ @3434
    _ZSt34__uninitialized_move_if_noexcept_aIPPN14WorkflowEngine6Idioma13ItemInterfaceES4_SaIS3_EET0_T_S7_S6_RT1_ @3435
    _ZSt34__uninitialized_move_if_noexcept_aIPPN14WorkflowEngine6Idioma9ParameterES4_SaIS3_EET0_T_S7_S6_RT1_ @3436
    _ZSt34__uninitialized_move_if_noexcept_aIPPN14WorkflowEngine8Criteria4Core14WorkFlowThreadES5_SaIS4_EET0_T_S8_S7_RT1_ @3437
    _ZSt34__uninitialized_move_if_noexcept_aIPPN14WorkflowEngine8Criteria4Core9IWorkflowES5_SaIS4_EET0_T_S8_S7_RT1_ @3438
    _ZSt34__uninitialized_move_if_noexcept_aIPPN14WorkflowEngine8Criteria5Event13EventListenerES5_SaIS4_EET0_T_S8_S7_RT1_ @3439
    _ZSt34__uninitialized_move_if_noexcept_aIPPN3bOS3SQL8SQLTableES4_SaIS3_EET0_T_S7_S6_RT1_ @3440
    _ZSt34__uninitialized_move_if_noexcept_aIPSsS0_SaISsEET0_T_S3_S2_RT1_ @3441
    _ZSt3maxIjERKT_S2_S2_ @3442
    _ZSt4copyIN9__gnu_cxx17__normal_iteratorIPKPN14WorkflowEngine8Criteria4Core9IWorkflowESt6vectorIS6_SaIS6_EEEEPS6_ET0_T_SF_SE_ @3443
    _ZSt4copyIN9__gnu_cxx17__normal_iteratorIPKPN3bOS11Collections15CollectionEntryESt6vectorIS5_SaIS5_EEEENS1_IPS5_SA_EEET0_T_SF_SE_ @3444
    _ZSt4copyIN9__gnu_cxx17__normal_iteratorIPKPN3bOS11Collections15CollectionEntryESt6vectorIS5_SaIS5_EEEEPS5_ET0_T_SE_SD_ @3445
    _ZSt4copyIN9__gnu_cxx17__normal_iteratorIPKPN3bOS3SQL8SQLTableESt6vectorIS5_SaIS5_EEEENS1_IPS5_SA_EEET0_T_SF_SE_ @3446
    _ZSt4copyIN9__gnu_cxx17__normal_iteratorIPKPN3bOS3SQL8SQLTableESt6vectorIS5_SaIS5_EEEEPS5_ET0_T_SE_SD_ @3447
    _ZSt4copyIPPN3bOS11Collections15CollectionEntryES4_ET0_T_S6_S5_ @3448
    _ZSt4copyIPPN3bOS3SQL8SQLTableES4_ET0_T_S6_S5_ @3449
    _ZSt4copyISt13move_iteratorIPPN11DataManager8DataBase14ProcessHandlerEES5_ET0_T_S8_S7_ @3450
    _ZSt4copyISt13move_iteratorIPPN11DataManager8DataBase16DataBaseTemplateEES5_ET0_T_S8_S7_ @3451
    _ZSt4copyISt13move_iteratorIPPN11DataManager8Panorama17WorkflowProcesses15WorkflowProcessEES6_ET0_T_S9_S8_ @3452
    _ZSt4copyISt13move_iteratorIPPN11DataManager8Panorama17WorkflowProcesses8ActivityEES6_ET0_T_S9_S8_ @3453
    _ZSt4copyISt13move_iteratorIPPN14WorkflowEngine6Idioma13ItemInterfaceEES5_ET0_T_S8_S7_ @3454
    _ZSt4copyISt13move_iteratorIPPN14WorkflowEngine6Idioma9ParameterEES5_ET0_T_S8_S7_ @3455
    _ZSt4copyISt13move_iteratorIPPN14WorkflowEngine8Criteria4Core14WorkFlowThreadEES6_ET0_T_S9_S8_ @3456
    _ZSt4copyISt13move_iteratorIPPN14WorkflowEngine8Criteria4Core9IWorkflowEES6_ET0_T_S9_S8_ @3457
    _ZSt4copyISt13move_iteratorIPPN14WorkflowEngine8Criteria5Event13EventListenerEES6_ET0_T_S9_S8_ @3458
    _ZSt4copyISt13move_iteratorIPPN3bOS3SQL8SQLTableEES5_ET0_T_S8_S7_ @3459
    _ZSt4moveIN9__gnu_cxx17__normal_iteratorIPPN11DataManager8DataBase14ProcessHandlerESt6vectorIS5_SaIS5_EEEESA_ET0_T_SC_SB_ @3460
    _ZSt4moveIN9__gnu_cxx17__normal_iteratorIPPN14WorkflowEngine8Criteria4Core9IWorkflowESt6vectorIS6_SaIS6_EEEESB_ET0_T_SD_SC_ @3461
    _ZSt4moveIRN14WorkflowEngine14WorkflowActionEEONSt16remove_referenceIT_E4typeEOS4_ @3462
    _ZSt4moveIRPN11DataManager8DataBase14ProcessHandlerEEONSt16remove_referenceIT_E4typeEOS6_ @3463
    _ZSt4moveIRPN14WorkflowEngine6Idioma13ItemInterfaceEEONSt16remove_referenceIT_E4typeEOS6_ @3464
    _ZSt4moveIRPN3bOS3SQL8SQLTableEEONSt16remove_referenceIT_E4typeEOS6_ @3465
    _ZSt4moveIRPSsEONSt16remove_referenceIT_E4typeEOS3_ @3466
    _ZSt4moveIRSaISsEEONSt16remove_referenceIT_E4typeEOS3_ @3467
    _ZSt4moveIRSsEONSt16remove_referenceIT_E4typeEOS2_ @3468
    _ZSt4moveIRSt6vectorISsSaISsEEEONSt16remove_referenceIT_E4typeEOS5_ @3469
    _ZSt4swapIPSsEvRT_S2_ @3470
    _ZSt7forwardIN14WorkflowEngine14WorkflowActionEEOT_RNSt16remove_referenceIS2_E4typeE @3471
    _ZSt7forwardIPN11DataManager8DataBase14ProcessHandlerEEOT_RNSt16remove_referenceIS4_E4typeE @3472
    _ZSt7forwardIPN14WorkflowEngine6Idioma13ItemInterfaceEEOT_RNSt16remove_referenceIS4_E4typeE @3473
    _ZSt7forwardIPN3bOS3SQL8SQLTableEEOT_RNSt16remove_referenceIS4_E4typeE @3474
    _ZSt7forwardIRKPN11DataManager8DataBase16DataBaseTemplateEEOT_RNSt16remove_referenceIS6_E4typeE @3475
    _ZSt7forwardIRKPN11DataManager8Panorama17WorkflowProcesses15WorkflowProcessEEOT_RNSt16remove_referenceIS7_E4typeE @3476
    _ZSt7forwardIRKPN11DataManager8Panorama17WorkflowProcesses8ActivityEEOT_RNSt16remove_referenceIS7_E4typeE @3477
    _ZSt7forwardIRKPN14WorkflowEngine6Idioma9ParameterEEOT_RNSt16remove_referenceIS6_E4typeE @3478
    _ZSt7forwardIRKPN14WorkflowEngine8Criteria4Core14WorkFlowThreadEEOT_RNSt16remove_referenceIS7_E4typeE @3479
    _ZSt7forwardIRKPN14WorkflowEngine8Criteria4Core9IWorkflowEEOT_RNSt16remove_referenceIS7_E4typeE @3480
    _ZSt7forwardIRKPN14WorkflowEngine8Criteria5Event13EventListenerEEOT_RNSt16remove_referenceIS7_E4typeE @3481
    _ZSt7forwardIRKSsEOT_RNSt16remove_referenceIS2_E4typeE @3482
    _ZSt7forwardIRN14WorkflowEngine14WorkflowActionEEOT_RNSt16remove_referenceIS3_E4typeE @3483
    _ZSt7forwardISsEOT_RNSt16remove_referenceIS0_E4typeE @3484
    _ZSt8_DestroyIN14WorkflowEngine14WorkflowActionEEvPT_ @3485
    _ZSt8_DestroyIN9__gnu_cxx17__normal_iteratorIPPN3bOS11Collections15CollectionEntryESt6vectorIS5_SaIS5_EEEEEvT_SB_ @3486
    _ZSt8_DestroyIN9__gnu_cxx17__normal_iteratorIPPN3bOS11Collections15CollectionEntryESt6vectorIS5_SaIS5_EEEES5_EvT_SB_RSaIT0_E @3487
    _ZSt8_DestroyIN9__gnu_cxx17__normal_iteratorIPPN3bOS3SQL8SQLTableESt6vectorIS5_SaIS5_EEEEEvT_SB_ @3488
    _ZSt8_DestroyIN9__gnu_cxx17__normal_iteratorIPPN3bOS3SQL8SQLTableESt6vectorIS5_SaIS5_EEEES5_EvT_SB_RSaIT0_E @3489
    _ZSt8_DestroyIPN14WorkflowEngine14WorkflowActionEEvT_S3_ @3490
    _ZSt8_DestroyIPN14WorkflowEngine14WorkflowActionES1_EvT_S3_RSaIT0_E @3491
    _ZSt8_DestroyIPPN11DataManager8DataBase14ProcessHandlerEEvT_S5_ @3492
    _ZSt8_DestroyIPPN11DataManager8DataBase14ProcessHandlerES3_EvT_S5_RSaIT0_E @3493
    _ZSt8_DestroyIPPN11DataManager8DataBase16DataBaseTemplateEEvT_S5_ @3494
    _ZSt8_DestroyIPPN11DataManager8DataBase16DataBaseTemplateES3_EvT_S5_RSaIT0_E @3495
    _ZSt8_DestroyIPPN11DataManager8Panorama17WorkflowProcesses15WorkflowProcessEEvT_S6_ @3496
    _ZSt8_DestroyIPPN11DataManager8Panorama17WorkflowProcesses15WorkflowProcessES4_EvT_S6_RSaIT0_E @3497
    _ZSt8_DestroyIPPN11DataManager8Panorama17WorkflowProcesses8ActivityEEvT_S6_ @3498
    _ZSt8_DestroyIPPN11DataManager8Panorama17WorkflowProcesses8ActivityES4_EvT_S6_RSaIT0_E @3499
    _ZSt8_DestroyIPPN14WorkflowEngine6Idioma13ItemInterfaceEEvT_S5_ @3500
    _ZSt8_DestroyIPPN14WorkflowEngine6Idioma13ItemInterfaceES3_EvT_S5_RSaIT0_E @3501
    _ZSt8_DestroyIPPN14WorkflowEngine6Idioma9ParameterEEvT_S5_ @3502
    _ZSt8_DestroyIPPN14WorkflowEngine6Idioma9ParameterES3_EvT_S5_RSaIT0_E @3503
    _ZSt8_DestroyIPPN14WorkflowEngine8Criteria4Core14WorkFlowThreadEEvT_S6_ @3504
    _ZSt8_DestroyIPPN14WorkflowEngine8Criteria4Core14WorkFlowThreadES4_EvT_S6_RSaIT0_E @3505
    _ZSt8_DestroyIPPN14WorkflowEngine8Criteria4Core9IWorkflowEEvT_S6_ @3506
    _ZSt8_DestroyIPPN14WorkflowEngine8Criteria4Core9IWorkflowES4_EvT_S6_RSaIT0_E @3507
    _ZSt8_DestroyIPPN14WorkflowEngine8Criteria5Event13EventListenerEEvT_S6_ @3508
    _ZSt8_DestroyIPPN14WorkflowEngine8Criteria5Event13EventListenerES4_EvT_S6_RSaIT0_E @3509
    _ZSt8_DestroyIPPN3bOS11Collections15CollectionEntryEEvT_S5_ @3510
    _ZSt8_DestroyIPPN3bOS11Collections15CollectionEntryES3_EvT_S5_RSaIT0_E @3511
    _ZSt8_DestroyIPPN3bOS3SQL8SQLTableEEvT_S5_ @3512
    _ZSt8_DestroyIPPN3bOS3SQL8SQLTableES3_EvT_S5_RSaIT0_E @3513
    _ZSt8_DestroyIPSsEvT_S1_ @3514
    _ZSt8_DestroyIPSsSsEvT_S1_RSaIT0_E @3515
    _ZSt8_DestroyISsEvPT_ @3516
    _ZSteqIPSsEbRKSt13move_iteratorIT_ES5_ @3517
    _ZSteqIcEN9__gnu_cxx11__enable_ifIXsrSt9__is_charIT_E7__valueEbE6__typeERKSbIS3_St11char_traitsIS3_ESaIS3_EESC_ @3518
    _ZSteqIcSt11char_traitsIcESaIcEEbPKT_RKSbIS3_T0_T1_E @3519
    _ZSteqIcSt11char_traitsIcESaIcEEbRKSbIT_T0_T1_EPKS3_ @3520
    _ZStgeIcSt11char_traitsIcESaIcEEbRKSbIT_T0_T1_ES8_ @3521
    _ZStgtIcSt11char_traitsIcESaIcEEbRKSbIT_T0_T1_ES8_ @3522
    _ZStleIcSt11char_traitsIcESaIcEEbRKSbIT_T0_T1_ES8_ @3523
    _ZStltIcSt11char_traitsIcESaIcEEbRKSbIT_T0_T1_ES8_ @3524
    _ZStneIPN3bOS11Collections15CollectionEntryEEbRKSaIT_ES7_ @3525
    _ZStneIPN3bOS3SQL8SQLTableEEbRKSaIT_ES7_ @3526
    _ZStneIPSsEbRKSt13move_iteratorIT_ES5_ @3527
    _ZStneIcSt11char_traitsIcESaIcEEbRKSbIT_T0_T1_EPKS3_ @3528
    _ZStneIcSt11char_traitsIcESaIcEEbRKSbIT_T0_T1_ES8_ @3529
    _ZStorSt13_Ios_OpenmodeS_ @3530
    _ZStplIcSt11char_traitsIcESaIcEESbIT_T0_T1_EOS6_PKS3_ @3531
    _ZStplIcSt11char_traitsIcESaIcEESbIT_T0_T1_EOS6_RKS6_ @3532
    _ZStplIcSt11char_traitsIcESaIcEESbIT_T0_T1_EOS6_S7_ @3533
    _ZStplIcSt11char_traitsIcESaIcEESbIT_T0_T1_EPKS3_RKS6_ @3534
    _ZStplIcSt11char_traitsIcESaIcEESbIT_T0_T1_ERKS6_S8_ @3535
    _ZTCN11DataManager8Panorama17WorkflowProcesses15WorkflowProcessE0_N3bOS3XML4Data7XMLFileE @3536 DATA
    _ZTCN11DataManager8Panorama8DataBase8DataBaseE0_N3bOS3XML4Data7XMLFileE @3537 DATA
    _ZTIN11DataManager8DataBase10FileSystem18FileSystemDataBaseE @3538 DATA
    _ZTIN11DataManager8DataBase10FileSystem33WorkflowProcessInstanceRepositoryE @3539 DATA
    _ZTIN11DataManager8DataBase11DBExceptionE @3540 DATA
    _ZTIN11DataManager8DataBase14DataBaseHelperE @3541 DATA
    _ZTIN11DataManager8DataBase16DataBaseTemplateE @3542 DATA
    _ZTIN11DataManager8Panorama14WorkflowEvents11EventSourceE @3543 DATA
    _ZTIN11DataManager8Panorama14WorkflowEvents12EventActionsE @3544 DATA
    _ZTIN11DataManager8Panorama14WorkflowEvents12EventContextE @3545 DATA
    _ZTIN11DataManager8Panorama14WorkflowEvents12WaitingEventE @3546 DATA
    _ZTIN11DataManager8Panorama14WorkflowEvents13EventPoliciesE @3547 DATA
    _ZTIN11DataManager8Panorama14WorkflowEvents13OccurredEventE @3548 DATA
    _ZTIN11DataManager8Panorama14WorkflowEvents15WaitingActivityE @3549 DATA
    _ZTIN11DataManager8Panorama14WorkflowEvents16EventsDefinitionE @3550 DATA
    _ZTIN11DataManager8Panorama14WorkflowEvents17WaitingActivitiesE @3551 DATA
    _ZTIN11DataManager8Panorama14WorkflowEvents19EventConsumerPolicyE @3552 DATA
    _ZTIN11DataManager8Panorama14WorkflowEvents19ManagedEventElementE @3553 DATA
    _ZTIN11DataManager8Panorama14WorkflowEvents19ScenarioEventActionE @3554 DATA
    _ZTIN11DataManager8Panorama14WorkflowEvents21EventInvocationPolicyE @3555 DATA
    _ZTIN11DataManager8Panorama14WorkflowEvents5EventE @3556 DATA
    _ZTIN11DataManager8Panorama14WorkflowEvents6EventsE @3557 DATA
    _ZTIN11DataManager8Panorama16WorkflowServices7ServiceE @3558 DATA
    _ZTIN11DataManager8Panorama16WorkflowServices8ServicesE @3559 DATA
    _ZTIN11DataManager8Panorama17WorkflowDataTypes13DataTypeValueE @3560 DATA
    _ZTIN11DataManager8Panorama17WorkflowDataTypes14DataTypeValuesE @3561 DATA
    _ZTIN11DataManager8Panorama17WorkflowDataTypes8DataTypeE @3562 DATA
    _ZTIN11DataManager8Panorama17WorkflowDataTypes9DataTypesE @3563 DATA
    _ZTIN11DataManager8Panorama17WorkflowProcesses10ActivitiesE @3564 DATA
    _ZTIN11DataManager8Panorama17WorkflowProcesses10TransitionE @3565 DATA
    _ZTIN11DataManager8Panorama17WorkflowProcesses11TransitionsE @3566 DATA
    _ZTIN11DataManager8Panorama17WorkflowProcesses13BehaviourBaseE @3567 DATA
    _ZTIN11DataManager8Panorama17WorkflowProcesses14BehaviourStartE @3568 DATA
    _ZTIN11DataManager8Panorama17WorkflowProcesses15BehaviourFinishE @3569 DATA
    _ZTIN11DataManager8Panorama17WorkflowProcesses15WorkflowProcessE @3570 DATA
    _ZTIN11DataManager8Panorama17WorkflowProcesses16ProcessComponentE @3571 DATA
    _ZTIN11DataManager8Panorama17WorkflowProcesses17ActivityComponentE @3572 DATA
    _ZTIN11DataManager8Panorama17WorkflowProcesses18BehaviourExecutionE @3573 DATA
    _ZTIN11DataManager8Panorama17WorkflowProcesses3LogE @3574 DATA
    _ZTIN11DataManager8Panorama17WorkflowProcesses4LogsE @3575 DATA
    _ZTIN11DataManager8Panorama17WorkflowProcesses6ReportE @3576 DATA
    _ZTIN11DataManager8Panorama17WorkflowProcesses6ScriptE @3577 DATA
    _ZTIN11DataManager8Panorama17WorkflowProcesses6StatusE @3578 DATA
    _ZTIN11DataManager8Panorama17WorkflowProcesses7MessageE @3579 DATA
    _ZTIN11DataManager8Panorama17WorkflowProcesses7ReportsE @3580 DATA
    _ZTIN11DataManager8Panorama17WorkflowProcesses8ActivityE @3581 DATA
    _ZTIN11DataManager8Panorama17WorkflowProcesses8MessagesE @3582 DATA
    _ZTIN11DataManager8Panorama17WorkflowProcesses9BehaviourE @3583 DATA
    _ZTIN11DataManager8Panorama20WorkflowRelevantData10AttributesE @3584 DATA
    _ZTIN11DataManager8Panorama20WorkflowRelevantData9AttributeE @3585 DATA
    _ZTIN11DataManager8Panorama24WorkflowApplicationsData11ApplicationE @3586 DATA
    _ZTIN11DataManager8Panorama24WorkflowApplicationsData12ApplicationsE @3587 DATA
    _ZTIN11DataManager8Panorama24WorkflowApplicationsData19ApplicationFunctionE @3588 DATA
    _ZTIN11DataManager8Panorama24WorkflowApplicationsData20ApplicationFunctionsE @3589 DATA
    _ZTIN11DataManager8Panorama24WorkflowApplicationsData25ApplicationFunctionResultE @3590 DATA
    _ZTIN11DataManager8Panorama24WorkflowParticipantsData4RoleE @3591 DATA
    _ZTIN11DataManager8Panorama24WorkflowParticipantsData4UserE @3592 DATA
    _ZTIN11DataManager8Panorama24WorkflowParticipantsData5RolesE @3593 DATA
    _ZTIN11DataManager8Panorama24WorkflowParticipantsData5UsersE @3594 DATA
    _ZTIN11DataManager8Panorama6Common15FormalParameterE @3595 DATA
    _ZTIN11DataManager8Panorama6Common16FormalParametersE @3596 DATA
    _ZTIN11DataManager8Panorama6Common17ExtendedAttributeE @3597 DATA
    _ZTIN11DataManager8Panorama6Common18ExtendedAttributesE @3598 DATA
    _ZTIN11DataManager8Panorama6Common5GrantE @3599 DATA
    _ZTIN11DataManager8Panorama6Common6GrantsE @3600 DATA
    _ZTIN11DataManager8Panorama8DataBase10ConnectionE @3601 DATA
    _ZTIN11DataManager8Panorama8DataBase11ConnectionsE @3602 DATA
    _ZTIN11DataManager8Panorama8DataBase11PoolManagerE @3603 DATA
    _ZTIN11DataManager8Panorama8DataBase14DataBaseObjectE @3604 DATA
    _ZTIN11DataManager8Panorama8DataBase14ODBCConnectionE @3605 DATA
    _ZTIN11DataManager8Panorama8DataBase15mySQLConnectionE @3606 DATA
    _ZTIN11DataManager8Panorama8DataBase16SQLiteConnectionE @3607 DATA
    _ZTIN11DataManager8Panorama8DataBase20FileSystemConnectionE @3608 DATA
    _ZTIN11DataManager8Panorama8DataBase21DataBaseObjectManagerE @3609 DATA
    _ZTIN11DataManager8Panorama8DataBase8DataBaseE @3610 DATA
    _ZTIN14WorkflowEngine16ChannelExceptionE @3611 DATA
    _ZTIN14WorkflowEngine17FunctionExecutionE @3612 DATA
    _ZTIN14WorkflowEngine20ApplicationExceptionE @3613 DATA
    _ZTIN14WorkflowEngine23DynamicLibraryExceptionE @3614 DATA
    _ZTIN14WorkflowEngine23ScriptFunctionExecutionE @3615 DATA
    _ZTIN14WorkflowEngine23SocketFunctionExecutionE @3616 DATA
    _ZTIN14WorkflowEngine24LibraryFunctionExecutionE @3617 DATA
    _ZTIN14WorkflowEngine24ProcessFunctionExecutionE @3618 DATA
    _ZTIN14WorkflowEngine25ProcessExecutionExceptionE @3619 DATA
    _ZTIN14WorkflowEngine6Idioma10ExpressionE @3620 DATA
    _ZTIN14WorkflowEngine6Idioma13ItemInterfaceE @3621 DATA
    _ZTIN14WorkflowEngine6Idioma15ScriptExceptionE @3622 DATA
    _ZTIN14WorkflowEngine6Idioma17RetrieveParameterE @3623 DATA
    _ZTIN14WorkflowEngine6Idioma7KeywordE @3624 DATA
    _ZTIN14WorkflowEngine6Idioma8FreeTextE @3625 DATA
    _ZTIN14WorkflowEngine6Idioma8FunctionE @3626 DATA
    _ZTIN14WorkflowEngine6Idioma9ConditionE @3627 DATA
    _ZTIN14WorkflowEngine6Idioma9EvaluatorE @3628 DATA
    _ZTIN14WorkflowEngine6Idioma9ParameterE @3629 DATA
    _ZTIN14WorkflowEngine8Criteria4Core14WorkFlowThreadE @3630 DATA
    _ZTIN14WorkflowEngine8Criteria4Core14WorkflowReportE @3631 DATA
    _ZTIN14WorkflowEngine8Criteria4Core15EngineExceptionE @3632 DATA
    _ZTIN14WorkflowEngine8Criteria4Core15WorkflowManagerE @3633 DATA
    _ZTIN14WorkflowEngine8Criteria4Core17WorkflowExceptionE @3634 DATA
    _ZTIN14WorkflowEngine8Criteria4Core19EventsManagerThreadE @3635 DATA
    _ZTIN14WorkflowEngine8Criteria4Core6EngineE @3636 DATA
    _ZTIN14WorkflowEngine8Criteria4Core8WorkflowE @3637 DATA
    _ZTIN14WorkflowEngine8Criteria4Core9IWorkflowE @3638 DATA
    _ZTIN14WorkflowEngine8Criteria5Event10EventMakerE @3639 DATA
    _ZTIN14WorkflowEngine8Criteria5Event12ProcessEvent16BaseProcessEventE @3640 DATA
    _ZTIN14WorkflowEngine8Criteria5Event12ProcessEvent19CreatedProcessEventE @3641 DATA
    _ZTIN14WorkflowEngine8Criteria5Event12ProcessEvent20CreatingProcessEventE @3642 DATA
    _ZTIN14WorkflowEngine8Criteria5Event13EventListenerE @3643 DATA
    _ZTIN14WorkflowEngine8Criteria5Event13WorkflowEvent16EndWorkflowEventE @3644 DATA
    _ZTIN14WorkflowEngine8Criteria5Event13WorkflowEvent17BaseWorkflowEventE @3645 DATA
    _ZTIN14WorkflowEngine8Criteria5Event13WorkflowEvent18ErrorWorkflowEventE @3646 DATA
    _ZTIN14WorkflowEngine8Criteria5Event13WorkflowEvent19ManualWorkflowEventE @3647 DATA
    _ZTIN14WorkflowEngine8Criteria5Event13WorkflowEvent20StartedWorkflowEventE @3648 DATA
    _ZTIN14WorkflowEngine8Criteria5Event13WorkflowEvent21StartingWorkflowEventE @3649 DATA
    _ZTIN14WorkflowEngine8Criteria5Event13WorkflowEvent22RestartedWorkflowEventE @3650 DATA
    _ZTIN14WorkflowEngine8Criteria5Event8Listener16WorkflowListenerE @3651 DATA
    _ZTIN14WorkflowEngine8Criteria5Event9BaseEventE @3652 DATA
    _ZTIN14WorkflowEngine8Criteria9BasicTask11Application23ApplicationFunctionTaskE @3653 DATA
    _ZTIN14WorkflowEngine8Criteria9BasicTask11Application6Action25ApplicationFunctionActionE @3654 DATA
    _ZTIN14WorkflowEngine8Criteria9BasicTask11Application6Action31ApplicationFunctionActionAttachE @3655 DATA
    _ZTIN14WorkflowEngine8Criteria9BasicTask3XML6Action13XMLActionXSLTE @3656 DATA
    _ZTIN14WorkflowEngine8Criteria9BasicTask3XML6Action16XMLActionXMLFileE @3657 DATA
    _ZTIN14WorkflowEngine8Criteria9BasicTask3XML6Action9XMLActionE @3658 DATA
    _ZTIN14WorkflowEngine8Criteria9BasicTask3XML7XMLTaskE @3659 DATA
    _ZTIN14WorkflowEngine8Criteria9BasicTask5Event6Action11EventActionE @3660 DATA
    _ZTIN14WorkflowEngine8Criteria9BasicTask5Event6Action15MakeEventActionE @3661 DATA
    _ZTIN14WorkflowEngine8Criteria9BasicTask5Event6Action18ConsumeEventActionE @3662 DATA
    _ZTIN14WorkflowEngine8Criteria9BasicTask5Event9EventTaskE @3663 DATA
    _ZTIN14WorkflowEngine8Criteria9BasicTask6Action10BaseActionE @3664 DATA
    _ZTIN14WorkflowEngine8Criteria9BasicTask6Action21EvalRetrieveParameterE @3665 DATA
    _ZTIN14WorkflowEngine8Criteria9BasicTask7Process11ProcessTaskE @3666 DATA
    _ZTIN14WorkflowEngine8Criteria9BasicTask7Process15SubFlowExitTaskE @3667 DATA
    _ZTIN14WorkflowEngine8Criteria9BasicTask7Process6Action13ProcessActionE @3668 DATA
    _ZTIN14WorkflowEngine8Criteria9BasicTask7Process6Action17SubFlowExitActionE @3669 DATA
    _ZTIN14WorkflowEngine8Criteria9BasicTask7Process6Action19ProcessActionAttachE @3670 DATA
    _ZTIN14WorkflowEngine8Criteria9BasicTask8BaseTaskE @3671 DATA
    _ZTIN14WorkflowEngine8Criteria9BasicTask9BeginTaskE @3672 DATA
    _ZTIN14WorkflowEngine8Criteria9BasicTask9Condition13ConditionTaskE @3673 DATA
    _ZTIN14WorkflowEngine8Criteria9BasicTask9Condition6Action15ConditionActionE @3674 DATA
    _ZTIN14WorkflowEngine8Criteria9BasicTask9Condition6Action20EvalExpressionActionE @3675 DATA
    _ZTIN14WorkflowEngine8Criteria9BasicTask9Iteration6Action15IterationActionE @3676 DATA
    _ZTIN14WorkflowEngine8Criteria9BasicTask9Iteration6Action22IterationCounterActionE @3677 DATA
    _ZTIN14WorkflowEngine8Criteria9BasicTask9Iteration6Action25IterationExpressionActionE @3678 DATA
    _ZTIN14WorkflowEngine8Criteria9BasicTask9Iteration8LoopTaskE @3679 DATA
    _ZTIN14WorkflowEngine8Criteria9BasicTask9Primitive13PrimitiveTaskE @3680 DATA
    _ZTIN14WorkflowEngine8Criteria9BasicTask9Primitive6Action15PrimitiveActionE @3681 DATA
    _ZTIN14WorkflowEngine8Criteria9BasicTask9Primitive6Action21PrimitiveActionAttachE @3682 DATA
    _ZTIN14WorkflowEngine8Criteria9BasicTask9Primitive6Action21PrimitiveActionDetachE @3683 DATA
    _ZTIN14WorkflowEngine8Criteria9DataTypes11NaturalTypeE @3684 DATA
    _ZTIN14WorkflowEngine8Criteria9DataTypes9IDataTypeE @3685 DATA
    _ZTIN3bOS11Collections10CollectionE @3686 DATA
    _ZTIN3bOS11Collections15CollectionEntryE @3687 DATA
    _ZTIN3bOS3Net22SocketRunTimeExceptionE @3688 DATA
    _ZTIN3bOS3SQL12SQLExceptionE @3689 DATA
    _ZTIN3bOS3SQL8SQLTableE @3690 DATA
    _ZTIN3bOS3XML12XMLExceptionE @3691 DATA
    _ZTIN3bOS3XML4Data12XMLDirectoryE @3692 DATA
    _ZTIN3bOS3XML4Data12XMLObjectSetE @3693 DATA
    _ZTIN3bOS3XML4Data7XMLFileE @3694 DATA
    _ZTIN3bOS3XML4Data9XMLObjectE @3695 DATA
    _ZTIN3bOS4Core11SmartLockerINS0_5MutexEEE @3696 DATA
    _ZTIN3bOS4Core6ThreadE @3697 DATA
    _ZTIN3bOS4Core8RunnableE @3698 DATA
    _ZTIN3bOS9Exception13BaseExceptionE @3699 DATA
    _ZTIN3bOS9Exception16RuntimeExceptionE @3700 DATA
    _ZTIN3bOS9Exception19FileSystemExceptionE @3701 DATA
    _ZTIN3bOS9Exception21NullArgumentExceptionE @3702 DATA
    _ZTIN3bOS9Exception24SynchronizationExceptionE @3703 DATA
    _ZTIPN11DataManager8DataBase11DBExceptionE @3704 DATA
    _ZTIPN14WorkflowEngine16ChannelExceptionE @3705 DATA
    _ZTIPN14WorkflowEngine23DynamicLibraryExceptionE @3706 DATA
    _ZTISt13runtime_error @3707 DATA
    _ZTISt9exception @3708 DATA
    _ZTSN11DataManager8DataBase10FileSystem18FileSystemDataBaseE @3709 DATA
    _ZTSN11DataManager8DataBase10FileSystem33WorkflowProcessInstanceRepositoryE @3710 DATA
    _ZTSN11DataManager8DataBase11DBExceptionE @3711 DATA
    _ZTSN11DataManager8DataBase14DataBaseHelperE @3712 DATA
    _ZTSN11DataManager8DataBase16DataBaseTemplateE @3713 DATA
    _ZTSN11DataManager8Panorama14WorkflowEvents11EventSourceE @3714 DATA
    _ZTSN11DataManager8Panorama14WorkflowEvents12EventActionsE @3715 DATA
    _ZTSN11DataManager8Panorama14WorkflowEvents12EventContextE @3716 DATA
    _ZTSN11DataManager8Panorama14WorkflowEvents12WaitingEventE @3717 DATA
    _ZTSN11DataManager8Panorama14WorkflowEvents13EventPoliciesE @3718 DATA
    _ZTSN11DataManager8Panorama14WorkflowEvents13OccurredEventE @3719 DATA
    _ZTSN11DataManager8Panorama14WorkflowEvents15WaitingActivityE @3720 DATA
    _ZTSN11DataManager8Panorama14WorkflowEvents16EventsDefinitionE @3721 DATA
    _ZTSN11DataManager8Panorama14WorkflowEvents17WaitingActivitiesE @3722 DATA
    _ZTSN11DataManager8Panorama14WorkflowEvents19EventConsumerPolicyE @3723 DATA
    _ZTSN11DataManager8Panorama14WorkflowEvents19ManagedEventElementE @3724 DATA
    _ZTSN11DataManager8Panorama14WorkflowEvents19ScenarioEventActionE @3725 DATA
    _ZTSN11DataManager8Panorama14WorkflowEvents21EventInvocationPolicyE @3726 DATA
    _ZTSN11DataManager8Panorama14WorkflowEvents5EventE @3727 DATA
    _ZTSN11DataManager8Panorama14WorkflowEvents6EventsE @3728 DATA
    _ZTSN11DataManager8Panorama16WorkflowServices7ServiceE @3729 DATA
    _ZTSN11DataManager8Panorama16WorkflowServices8ServicesE @3730 DATA
    _ZTSN11DataManager8Panorama17WorkflowDataTypes13DataTypeValueE @3731 DATA
    _ZTSN11DataManager8Panorama17WorkflowDataTypes14DataTypeValuesE @3732 DATA
    _ZTSN11DataManager8Panorama17WorkflowDataTypes8DataTypeE @3733 DATA
    _ZTSN11DataManager8Panorama17WorkflowDataTypes9DataTypesE @3734 DATA
    _ZTSN11DataManager8Panorama17WorkflowProcesses10ActivitiesE @3735 DATA
    _ZTSN11DataManager8Panorama17WorkflowProcesses10TransitionE @3736 DATA
    _ZTSN11DataManager8Panorama17WorkflowProcesses11TransitionsE @3737 DATA
    _ZTSN11DataManager8Panorama17WorkflowProcesses13BehaviourBaseE @3738 DATA
    _ZTSN11DataManager8Panorama17WorkflowProcesses14BehaviourStartE @3739 DATA
    _ZTSN11DataManager8Panorama17WorkflowProcesses15BehaviourFinishE @3740 DATA
    _ZTSN11DataManager8Panorama17WorkflowProcesses15WorkflowProcessE @3741 DATA
    _ZTSN11DataManager8Panorama17WorkflowProcesses16ProcessComponentE @3742 DATA
    _ZTSN11DataManager8Panorama17WorkflowProcesses17ActivityComponentE @3743 DATA
    _ZTSN11DataManager8Panorama17WorkflowProcesses18BehaviourExecutionE @3744 DATA
    _ZTSN11DataManager8Panorama17WorkflowProcesses3LogE @3745 DATA
    _ZTSN11DataManager8Panorama17WorkflowProcesses4LogsE @3746 DATA
    _ZTSN11DataManager8Panorama17WorkflowProcesses6ReportE @3747 DATA
    _ZTSN11DataManager8Panorama17WorkflowProcesses6ScriptE @3748 DATA
    _ZTSN11DataManager8Panorama17WorkflowProcesses6StatusE @3749 DATA
    _ZTSN11DataManager8Panorama17WorkflowProcesses7MessageE @3750 DATA
    _ZTSN11DataManager8Panorama17WorkflowProcesses7ReportsE @3751 DATA
    _ZTSN11DataManager8Panorama17WorkflowProcesses8ActivityE @3752 DATA
    _ZTSN11DataManager8Panorama17WorkflowProcesses8MessagesE @3753 DATA
    _ZTSN11DataManager8Panorama17WorkflowProcesses9BehaviourE @3754 DATA
    _ZTSN11DataManager8Panorama20WorkflowRelevantData10AttributesE @3755 DATA
    _ZTSN11DataManager8Panorama20WorkflowRelevantData9AttributeE @3756 DATA
    _ZTSN11DataManager8Panorama24WorkflowApplicationsData11ApplicationE @3757 DATA
    _ZTSN11DataManager8Panorama24WorkflowApplicationsData12ApplicationsE @3758 DATA
    _ZTSN11DataManager8Panorama24WorkflowApplicationsData19ApplicationFunctionE @3759 DATA
    _ZTSN11DataManager8Panorama24WorkflowApplicationsData20ApplicationFunctionsE @3760 DATA
    _ZTSN11DataManager8Panorama24WorkflowApplicationsData25ApplicationFunctionResultE @3761 DATA
    _ZTSN11DataManager8Panorama24WorkflowParticipantsData4RoleE @3762 DATA
    _ZTSN11DataManager8Panorama24WorkflowParticipantsData4UserE @3763 DATA
    _ZTSN11DataManager8Panorama24WorkflowParticipantsData5RolesE @3764 DATA
    _ZTSN11DataManager8Panorama24WorkflowParticipantsData5UsersE @3765 DATA
    _ZTSN11DataManager8Panorama6Common15FormalParameterE @3766 DATA
    _ZTSN11DataManager8Panorama6Common16FormalParametersE @3767 DATA
    _ZTSN11DataManager8Panorama6Common17ExtendedAttributeE @3768 DATA
    _ZTSN11DataManager8Panorama6Common18ExtendedAttributesE @3769 DATA
    _ZTSN11DataManager8Panorama6Common5GrantE @3770 DATA
    _ZTSN11DataManager8Panorama6Common6GrantsE @3771 DATA
    _ZTSN11DataManager8Panorama8DataBase10ConnectionE @3772 DATA
    _ZTSN11DataManager8Panorama8DataBase11ConnectionsE @3773 DATA
    _ZTSN11DataManager8Panorama8DataBase11PoolManagerE @3774 DATA
    _ZTSN11DataManager8Panorama8DataBase14DataBaseObjectE @3775 DATA
    _ZTSN11DataManager8Panorama8DataBase14ODBCConnectionE @3776 DATA
    _ZTSN11DataManager8Panorama8DataBase15mySQLConnectionE @3777 DATA
    _ZTSN11DataManager8Panorama8DataBase16SQLiteConnectionE @3778 DATA
    _ZTSN11DataManager8Panorama8DataBase20FileSystemConnectionE @3779 DATA
    _ZTSN11DataManager8Panorama8DataBase21DataBaseObjectManagerE @3780 DATA
    _ZTSN11DataManager8Panorama8DataBase8DataBaseE @3781 DATA
    _ZTSN14WorkflowEngine16ChannelExceptionE @3782 DATA
    _ZTSN14WorkflowEngine17FunctionExecutionE @3783 DATA
    _ZTSN14WorkflowEngine20ApplicationExceptionE @3784 DATA
    _ZTSN14WorkflowEngine23DynamicLibraryExceptionE @3785 DATA
    _ZTSN14WorkflowEngine23ScriptFunctionExecutionE @3786 DATA
    _ZTSN14WorkflowEngine23SocketFunctionExecutionE @3787 DATA
    _ZTSN14WorkflowEngine24LibraryFunctionExecutionE @3788 DATA
    _ZTSN14WorkflowEngine24ProcessFunctionExecutionE @3789 DATA
    _ZTSN14WorkflowEngine25ProcessExecutionExceptionE @3790 DATA
    _ZTSN14WorkflowEngine6Idioma10ExpressionE @3791 DATA
    _ZTSN14WorkflowEngine6Idioma13ItemInterfaceE @3792 DATA
    _ZTSN14WorkflowEngine6Idioma15ScriptExceptionE @3793 DATA
    _ZTSN14WorkflowEngine6Idioma17RetrieveParameterE @3794 DATA
    _ZTSN14WorkflowEngine6Idioma7KeywordE @3795 DATA
    _ZTSN14WorkflowEngine6Idioma8FreeTextE @3796 DATA
    _ZTSN14WorkflowEngine6Idioma8FunctionE @3797 DATA
    _ZTSN14WorkflowEngine6Idioma9ConditionE @3798 DATA
    _ZTSN14WorkflowEngine6Idioma9EvaluatorE @3799 DATA
    _ZTSN14WorkflowEngine6Idioma9ParameterE @3800 DATA
    _ZTSN14WorkflowEngine8Criteria4Core14WorkFlowThreadE @3801 DATA
    _ZTSN14WorkflowEngine8Criteria4Core14WorkflowReportE @3802 DATA
    _ZTSN14WorkflowEngine8Criteria4Core15EngineExceptionE @3803 DATA
    _ZTSN14WorkflowEngine8Criteria4Core15WorkflowManagerE @3804 DATA
    _ZTSN14WorkflowEngine8Criteria4Core17WorkflowExceptionE @3805 DATA
    _ZTSN14WorkflowEngine8Criteria4Core19EventsManagerThreadE @3806 DATA
    _ZTSN14WorkflowEngine8Criteria4Core6EngineE @3807 DATA
    _ZTSN14WorkflowEngine8Criteria4Core8WorkflowE @3808 DATA
    _ZTSN14WorkflowEngine8Criteria4Core9IWorkflowE @3809 DATA
    _ZTSN14WorkflowEngine8Criteria5Event10EventMakerE @3810 DATA
    _ZTSN14WorkflowEngine8Criteria5Event12ProcessEvent16BaseProcessEventE @3811 DATA
    _ZTSN14WorkflowEngine8Criteria5Event12ProcessEvent19CreatedProcessEventE @3812 DATA
    _ZTSN14WorkflowEngine8Criteria5Event12ProcessEvent20CreatingProcessEventE @3813 DATA
    _ZTSN14WorkflowEngine8Criteria5Event13EventListenerE @3814 DATA
    _ZTSN14WorkflowEngine8Criteria5Event13WorkflowEvent16EndWorkflowEventE @3815 DATA
    _ZTSN14WorkflowEngine8Criteria5Event13WorkflowEvent17BaseWorkflowEventE @3816 DATA
    _ZTSN14WorkflowEngine8Criteria5Event13WorkflowEvent18ErrorWorkflowEventE @3817 DATA
    _ZTSN14WorkflowEngine8Criteria5Event13WorkflowEvent19ManualWorkflowEventE @3818 DATA
    _ZTSN14WorkflowEngine8Criteria5Event13WorkflowEvent20StartedWorkflowEventE @3819 DATA
    _ZTSN14WorkflowEngine8Criteria5Event13WorkflowEvent21StartingWorkflowEventE @3820 DATA
    _ZTSN14WorkflowEngine8Criteria5Event13WorkflowEvent22RestartedWorkflowEventE @3821 DATA
    _ZTSN14WorkflowEngine8Criteria5Event8Listener16WorkflowListenerE @3822 DATA
    _ZTSN14WorkflowEngine8Criteria5Event9BaseEventE @3823 DATA
    _ZTSN14WorkflowEngine8Criteria9BasicTask11Application23ApplicationFunctionTaskE @3824 DATA
    _ZTSN14WorkflowEngine8Criteria9BasicTask11Application6Action25ApplicationFunctionActionE @3825 DATA
    _ZTSN14WorkflowEngine8Criteria9BasicTask11Application6Action31ApplicationFunctionActionAttachE @3826 DATA
    _ZTSN14WorkflowEngine8Criteria9BasicTask3XML6Action13XMLActionXSLTE @3827 DATA
    _ZTSN14WorkflowEngine8Criteria9BasicTask3XML6Action16XMLActionXMLFileE @3828 DATA
    _ZTSN14WorkflowEngine8Criteria9BasicTask3XML6Action9XMLActionE @3829 DATA
    _ZTSN14WorkflowEngine8Criteria9BasicTask3XML7XMLTaskE @3830 DATA
    _ZTSN14WorkflowEngine8Criteria9BasicTask5Event6Action11EventActionE @3831 DATA
    _ZTSN14WorkflowEngine8Criteria9BasicTask5Event6Action15MakeEventActionE @3832 DATA
    _ZTSN14WorkflowEngine8Criteria9BasicTask5Event6Action18ConsumeEventActionE @3833 DATA
    _ZTSN14WorkflowEngine8Criteria9BasicTask5Event9EventTaskE @3834 DATA
    _ZTSN14WorkflowEngine8Criteria9BasicTask6Action10BaseActionE @3835 DATA
    _ZTSN14WorkflowEngine8Criteria9BasicTask6Action21EvalRetrieveParameterE @3836 DATA
    _ZTSN14WorkflowEngine8Criteria9BasicTask7Process11ProcessTaskE @3837 DATA
    _ZTSN14WorkflowEngine8Criteria9BasicTask7Process15SubFlowExitTaskE @3838 DATA
    _ZTSN14WorkflowEngine8Criteria9BasicTask7Process6Action13ProcessActionE @3839 DATA
    _ZTSN14WorkflowEngine8Criteria9BasicTask7Process6Action17SubFlowExitActionE @3840 DATA
    _ZTSN14WorkflowEngine8Criteria9BasicTask7Process6Action19ProcessActionAttachE @3841 DATA
    _ZTSN14WorkflowEngine8Criteria9BasicTask8BaseTaskE @3842 DATA
    _ZTSN14WorkflowEngine8Criteria9BasicTask9BeginTaskE @3843 DATA
    _ZTSN14WorkflowEngine8Criteria9BasicTask9Condition13ConditionTaskE @3844 DATA
    _ZTSN14WorkflowEngine8Criteria9BasicTask9Condition6Action15ConditionActionE @3845 DATA
    _ZTSN14WorkflowEngine8Criteria9BasicTask9Condition6Action20EvalExpressionActionE @3846 DATA
    _ZTSN14WorkflowEngine8Criteria9BasicTask9Iteration6Action15IterationActionE @3847 DATA
    _ZTSN14WorkflowEngine8Criteria9BasicTask9Iteration6Action22IterationCounterActionE @3848 DATA
    _ZTSN14WorkflowEngine8Criteria9BasicTask9Iteration6Action25IterationExpressionActionE @3849 DATA
    _ZTSN14WorkflowEngine8Criteria9BasicTask9Iteration8LoopTaskE @3850 DATA
    _ZTSN14WorkflowEngine8Criteria9BasicTask9Primitive13PrimitiveTaskE @3851 DATA
    _ZTSN14WorkflowEngine8Criteria9BasicTask9Primitive6Action15PrimitiveActionE @3852 DATA
    _ZTSN14WorkflowEngine8Criteria9BasicTask9Primitive6Action21PrimitiveActionAttachE @3853 DATA
    _ZTSN14WorkflowEngine8Criteria9BasicTask9Primitive6Action21PrimitiveActionDetachE @3854 DATA
    _ZTSN14WorkflowEngine8Criteria9DataTypes11NaturalTypeE @3855 DATA
    _ZTSN14WorkflowEngine8Criteria9DataTypes9IDataTypeE @3856 DATA
    _ZTSN3bOS11Collections10CollectionE @3857 DATA
    _ZTSN3bOS11Collections15CollectionEntryE @3858 DATA
    _ZTSN3bOS3Net22SocketRunTimeExceptionE @3859 DATA
    _ZTSN3bOS3SQL12SQLExceptionE @3860 DATA
    _ZTSN3bOS3SQL8SQLTableE @3861 DATA
    _ZTSN3bOS3XML12XMLExceptionE @3862 DATA
    _ZTSN3bOS3XML4Data12XMLDirectoryE @3863 DATA
    _ZTSN3bOS3XML4Data12XMLObjectSetE @3864 DATA
    _ZTSN3bOS3XML4Data7XMLFileE @3865 DATA
    _ZTSN3bOS3XML4Data9XMLObjectE @3866 DATA
    _ZTSN3bOS4Core11SmartLockerINS0_5MutexEEE @3867 DATA
    _ZTSN3bOS4Core6ThreadE @3868 DATA
    _ZTSN3bOS4Core8RunnableE @3869 DATA
    _ZTSN3bOS9Exception13BaseExceptionE @3870 DATA
    _ZTSN3bOS9Exception16RuntimeExceptionE @3871 DATA
    _ZTSN3bOS9Exception19FileSystemExceptionE @3872 DATA
    _ZTSN3bOS9Exception21NullArgumentExceptionE @3873 DATA
    _ZTSN3bOS9Exception24SynchronizationExceptionE @3874 DATA
    _ZTSPN11DataManager8DataBase11DBExceptionE @3875 DATA
    _ZTSPN14WorkflowEngine16ChannelExceptionE @3876 DATA
    _ZTSPN14WorkflowEngine23DynamicLibraryExceptionE @3877 DATA
    _ZTSSt13runtime_error @3878 DATA
    _ZTSSt9exception @3879 DATA
    _ZTTN11DataManager8Panorama16WorkflowServices7ServiceE @3880 DATA
    _ZTTN11DataManager8Panorama17WorkflowDataTypes8DataTypeE @3881 DATA
    _ZTTN11DataManager8Panorama17WorkflowProcesses15WorkflowProcessE @3882 DATA
    _ZTTN11DataManager8Panorama24WorkflowParticipantsData4UserE @3883 DATA
    _ZTTN11DataManager8Panorama8DataBase8DataBaseE @3884 DATA
    _ZTVN11DataManager8DataBase10FileSystem18FileSystemDataBaseE @3885 DATA
    _ZTVN11DataManager8DataBase10FileSystem33WorkflowProcessInstanceRepositoryE @3886 DATA
    _ZTVN11DataManager8DataBase11DBExceptionE @3887 DATA
    _ZTVN11DataManager8DataBase14DataBaseHelperE @3888 DATA
    _ZTVN11DataManager8DataBase16DataBaseTemplateE @3889 DATA
    _ZTVN11DataManager8Panorama14WorkflowEvents11EventSourceE @3890 DATA
    _ZTVN11DataManager8Panorama14WorkflowEvents12EventActionsE @3891 DATA
    _ZTVN11DataManager8Panorama14WorkflowEvents12EventContextE @3892 DATA
    _ZTVN11DataManager8Panorama14WorkflowEvents12WaitingEventE @3893 DATA
    _ZTVN11DataManager8Panorama14WorkflowEvents13EventPoliciesE @3894 DATA
    _ZTVN11DataManager8Panorama14WorkflowEvents13OccurredEventE @3895 DATA
    _ZTVN11DataManager8Panorama14WorkflowEvents15WaitingActivityE @3896 DATA
    _ZTVN11DataManager8Panorama14WorkflowEvents16EventsDefinitionE @3897 DATA
    _ZTVN11DataManager8Panorama14WorkflowEvents17WaitingActivitiesE @3898 DATA
    _ZTVN11DataManager8Panorama14WorkflowEvents19EventConsumerPolicyE @3899 DATA
    _ZTVN11DataManager8Panorama14WorkflowEvents19ManagedEventElementE @3900 DATA
    _ZTVN11DataManager8Panorama14WorkflowEvents19ScenarioEventActionE @3901 DATA
    _ZTVN11DataManager8Panorama14WorkflowEvents21EventInvocationPolicyE @3902 DATA
    _ZTVN11DataManager8Panorama14WorkflowEvents5EventE @3903 DATA
    _ZTVN11DataManager8Panorama14WorkflowEvents6EventsE @3904 DATA
    _ZTVN11DataManager8Panorama16WorkflowServices7ServiceE @3905 DATA
    _ZTVN11DataManager8Panorama16WorkflowServices8ServicesE @3906 DATA
    _ZTVN11DataManager8Panorama17WorkflowDataTypes13DataTypeValueE @3907 DATA
    _ZTVN11DataManager8Panorama17WorkflowDataTypes14DataTypeValuesE @3908 DATA
    _ZTVN11DataManager8Panorama17WorkflowDataTypes8DataTypeE @3909 DATA
    _ZTVN11DataManager8Panorama17WorkflowDataTypes9DataTypesE @3910 DATA
    _ZTVN11DataManager8Panorama17WorkflowProcesses10ActivitiesE @3911 DATA
    _ZTVN11DataManager8Panorama17WorkflowProcesses10TransitionE @3912 DATA
    _ZTVN11DataManager8Panorama17WorkflowProcesses11TransitionsE @3913 DATA
    _ZTVN11DataManager8Panorama17WorkflowProcesses13BehaviourBaseE @3914 DATA
    _ZTVN11DataManager8Panorama17WorkflowProcesses14BehaviourStartE @3915 DATA
    _ZTVN11DataManager8Panorama17WorkflowProcesses15BehaviourFinishE @3916 DATA
    _ZTVN11DataManager8Panorama17WorkflowProcesses15WorkflowProcessE @3917 DATA
    _ZTVN11DataManager8Panorama17WorkflowProcesses16ProcessComponentE @3918 DATA
    _ZTVN11DataManager8Panorama17WorkflowProcesses17ActivityComponentE @3919 DATA
    _ZTVN11DataManager8Panorama17WorkflowProcesses18BehaviourExecutionE @3920 DATA
    _ZTVN11DataManager8Panorama17WorkflowProcesses3LogE @3921 DATA
    _ZTVN11DataManager8Panorama17WorkflowProcesses4LogsE @3922 DATA
    _ZTVN11DataManager8Panorama17WorkflowProcesses6ReportE @3923 DATA
    _ZTVN11DataManager8Panorama17WorkflowProcesses6ScriptE @3924 DATA
    _ZTVN11DataManager8Panorama17WorkflowProcesses6StatusE @3925 DATA
    _ZTVN11DataManager8Panorama17WorkflowProcesses7MessageE @3926 DATA
    _ZTVN11DataManager8Panorama17WorkflowProcesses7ReportsE @3927 DATA
    _ZTVN11DataManager8Panorama17WorkflowProcesses8ActivityE @3928 DATA
    _ZTVN11DataManager8Panorama17WorkflowProcesses8MessagesE @3929 DATA
    _ZTVN11DataManager8Panorama17WorkflowProcesses9BehaviourE @3930 DATA
    _ZTVN11DataManager8Panorama20WorkflowRelevantData10AttributesE @3931 DATA
    _ZTVN11DataManager8Panorama20WorkflowRelevantData9AttributeE @3932 DATA
    _ZTVN11DataManager8Panorama24WorkflowApplicationsData11ApplicationE @3933 DATA
    _ZTVN11DataManager8Panorama24WorkflowApplicationsData12ApplicationsE @3934 DATA
    _ZTVN11DataManager8Panorama24WorkflowApplicationsData19ApplicationFunctionE @3935 DATA
    _ZTVN11DataManager8Panorama24WorkflowApplicationsData20ApplicationFunctionsE @3936 DATA
    _ZTVN11DataManager8Panorama24WorkflowApplicationsData25ApplicationFunctionResultE @3937 DATA
    _ZTVN11DataManager8Panorama24WorkflowParticipantsData4RoleE @3938 DATA
    _ZTVN11DataManager8Panorama24WorkflowParticipantsData4UserE @3939 DATA
    _ZTVN11DataManager8Panorama24WorkflowParticipantsData5RolesE @3940 DATA
    _ZTVN11DataManager8Panorama24WorkflowParticipantsData5UsersE @3941 DATA
    _ZTVN11DataManager8Panorama6Common15FormalParameterE @3942 DATA
    _ZTVN11DataManager8Panorama6Common16FormalParametersE @3943 DATA
    _ZTVN11DataManager8Panorama6Common17ExtendedAttributeE @3944 DATA
    _ZTVN11DataManager8Panorama6Common18ExtendedAttributesE @3945 DATA
    _ZTVN11DataManager8Panorama6Common5GrantE @3946 DATA
    _ZTVN11DataManager8Panorama6Common6GrantsE @3947 DATA
    _ZTVN11DataManager8Panorama8DataBase10ConnectionE @3948 DATA
    _ZTVN11DataManager8Panorama8DataBase11ConnectionsE @3949 DATA
    _ZTVN11DataManager8Panorama8DataBase11PoolManagerE @3950 DATA
    _ZTVN11DataManager8Panorama8DataBase14DataBaseObjectE @3951 DATA
    _ZTVN11DataManager8Panorama8DataBase14ODBCConnectionE @3952 DATA
    _ZTVN11DataManager8Panorama8DataBase15mySQLConnectionE @3953 DATA
    _ZTVN11DataManager8Panorama8DataBase16SQLiteConnectionE @3954 DATA
    _ZTVN11DataManager8Panorama8DataBase20FileSystemConnectionE @3955 DATA
    _ZTVN11DataManager8Panorama8DataBase21DataBaseObjectManagerE @3956 DATA
    _ZTVN11DataManager8Panorama8DataBase8DataBaseE @3957 DATA
    _ZTVN14WorkflowEngine16ChannelExceptionE @3958 DATA
    _ZTVN14WorkflowEngine17FunctionExecutionE @3959 DATA
    _ZTVN14WorkflowEngine20ApplicationExceptionE @3960 DATA
    _ZTVN14WorkflowEngine23DynamicLibraryExceptionE @3961 DATA
    _ZTVN14WorkflowEngine23ScriptFunctionExecutionE @3962 DATA
    _ZTVN14WorkflowEngine23SocketFunctionExecutionE @3963 DATA
    _ZTVN14WorkflowEngine24LibraryFunctionExecutionE @3964 DATA
    _ZTVN14WorkflowEngine24ProcessFunctionExecutionE @3965 DATA
    _ZTVN14WorkflowEngine25ProcessExecutionExceptionE @3966 DATA
    _ZTVN14WorkflowEngine6Idioma10ExpressionE @3967 DATA
    _ZTVN14WorkflowEngine6Idioma13ItemInterfaceE @3968 DATA
    _ZTVN14WorkflowEngine6Idioma17RetrieveParameterE @3969 DATA
    _ZTVN14WorkflowEngine6Idioma7KeywordE @3970 DATA
    _ZTVN14WorkflowEngine6Idioma8FreeTextE @3971 DATA
    _ZTVN14WorkflowEngine6Idioma8FunctionE @3972 DATA
    _ZTVN14WorkflowEngine6Idioma9ConditionE @3973 DATA
    _ZTVN14WorkflowEngine6Idioma9EvaluatorE @3974 DATA
    _ZTVN14WorkflowEngine6Idioma9ParameterE @3975 DATA
    _ZTVN14WorkflowEngine8Criteria4Core14WorkFlowThreadE @3976 DATA
    _ZTVN14WorkflowEngine8Criteria4Core14WorkflowReportE @3977 DATA
    _ZTVN14WorkflowEngine8Criteria4Core15EngineExceptionE @3978 DATA
    _ZTVN14WorkflowEngine8Criteria4Core15WorkflowManagerE @3979 DATA
    _ZTVN14WorkflowEngine8Criteria4Core17WorkflowExceptionE @3980 DATA
    _ZTVN14WorkflowEngine8Criteria4Core19EventsManagerThreadE @3981 DATA
    _ZTVN14WorkflowEngine8Criteria4Core6EngineE @3982 DATA
    _ZTVN14WorkflowEngine8Criteria4Core8WorkflowE @3983 DATA
    _ZTVN14WorkflowEngine8Criteria4Core9IWorkflowE @3984 DATA
    _ZTVN14WorkflowEngine8Criteria5Event10EventMakerE @3985 DATA
    _ZTVN14WorkflowEngine8Criteria5Event12ProcessEvent16BaseProcessEventE @3986 DATA
    _ZTVN14WorkflowEngine8Criteria5Event12ProcessEvent19CreatedProcessEventE @3987 DATA
    _ZTVN14WorkflowEngine8Criteria5Event12ProcessEvent20CreatingProcessEventE @3988 DATA
    _ZTVN14WorkflowEngine8Criteria5Event13EventListenerE @3989 DATA
    _ZTVN14WorkflowEngine8Criteria5Event13WorkflowEvent16EndWorkflowEventE @3990 DATA
    _ZTVN14WorkflowEngine8Criteria5Event13WorkflowEvent17BaseWorkflowEventE @3991 DATA
    _ZTVN14WorkflowEngine8Criteria5Event13WorkflowEvent18ErrorWorkflowEventE @3992 DATA
    _ZTVN14WorkflowEngine8Criteria5Event13WorkflowEvent19ManualWorkflowEventE @3993 DATA
    _ZTVN14WorkflowEngine8Criteria5Event13WorkflowEvent20StartedWorkflowEventE @3994 DATA
    _ZTVN14WorkflowEngine8Criteria5Event13WorkflowEvent21StartingWorkflowEventE @3995 DATA
    _ZTVN14WorkflowEngine8Criteria5Event13WorkflowEvent22RestartedWorkflowEventE @3996 DATA
    _ZTVN14WorkflowEngine8Criteria5Event8Listener16WorkflowListenerE @3997 DATA
    _ZTVN14WorkflowEngine8Criteria5Event9BaseEventE @3998 DATA
    _ZTVN14WorkflowEngine8Criteria9BasicTask11Application23ApplicationFunctionTaskE @3999 DATA
    _ZTVN14WorkflowEngine8Criteria9BasicTask11Application6Action25ApplicationFunctionActionE @4000 DATA
    _ZTVN14WorkflowEngine8Criteria9BasicTask11Application6Action31ApplicationFunctionActionAttachE @4001 DATA
    _ZTVN14WorkflowEngine8Criteria9BasicTask3XML6Action13XMLActionXSLTE @4002 DATA
    _ZTVN14WorkflowEngine8Criteria9BasicTask3XML6Action16XMLActionXMLFileE @4003 DATA
    _ZTVN14WorkflowEngine8Criteria9BasicTask3XML6Action9XMLActionE @4004 DATA
    _ZTVN14WorkflowEngine8Criteria9BasicTask3XML7XMLTaskE @4005 DATA
    _ZTVN14WorkflowEngine8Criteria9BasicTask5Event6Action11EventActionE @4006 DATA
    _ZTVN14WorkflowEngine8Criteria9BasicTask5Event6Action15MakeEventActionE @4007 DATA
    _ZTVN14WorkflowEngine8Criteria9BasicTask5Event6Action18ConsumeEventActionE @4008 DATA
    _ZTVN14WorkflowEngine8Criteria9BasicTask5Event9EventTaskE @4009 DATA
    _ZTVN14WorkflowEngine8Criteria9BasicTask6Action10BaseActionE @4010 DATA
    _ZTVN14WorkflowEngine8Criteria9BasicTask6Action21EvalRetrieveParameterE @4011 DATA
    _ZTVN14WorkflowEngine8Criteria9BasicTask7Process11ProcessTaskE @4012 DATA
    _ZTVN14WorkflowEngine8Criteria9BasicTask7Process15SubFlowExitTaskE @4013 DATA
    _ZTVN14WorkflowEngine8Criteria9BasicTask7Process6Action13ProcessActionE @4014 DATA
    _ZTVN14WorkflowEngine8Criteria9BasicTask7Process6Action17SubFlowExitActionE @4015 DATA
    _ZTVN14WorkflowEngine8Criteria9BasicTask7Process6Action19ProcessActionAttachE @4016 DATA
    _ZTVN14WorkflowEngine8Criteria9BasicTask8BaseTaskE @4017 DATA
    _ZTVN14WorkflowEngine8Criteria9BasicTask9BeginTaskE @4018 DATA
    _ZTVN14WorkflowEngine8Criteria9BasicTask9Condition13ConditionTaskE @4019 DATA
    _ZTVN14WorkflowEngine8Criteria9BasicTask9Condition6Action15ConditionActionE @4020 DATA
    _ZTVN14WorkflowEngine8Criteria9BasicTask9Condition6Action20EvalExpressionActionE @4021 DATA
    _ZTVN14WorkflowEngine8Criteria9BasicTask9Iteration6Action15IterationActionE @4022 DATA
    _ZTVN14WorkflowEngine8Criteria9BasicTask9Iteration6Action22IterationCounterActionE @4023 DATA
    _ZTVN14WorkflowEngine8Criteria9BasicTask9Iteration6Action25IterationExpressionActionE @4024 DATA
    _ZTVN14WorkflowEngine8Criteria9BasicTask9Iteration8LoopTaskE @4025 DATA
    _ZTVN14WorkflowEngine8Criteria9BasicTask9Primitive13PrimitiveTaskE @4026 DATA
    _ZTVN14WorkflowEngine8Criteria9BasicTask9Primitive6Action15PrimitiveActionE @4027 DATA
    _ZTVN14WorkflowEngine8Criteria9BasicTask9Primitive6Action21PrimitiveActionAttachE @4028 DATA
    _ZTVN14WorkflowEngine8Criteria9BasicTask9Primitive6Action21PrimitiveActionDetachE @4029 DATA
    _ZTVN14WorkflowEngine8Criteria9DataTypes11NaturalTypeE @4030 DATA
    _ZTVN14WorkflowEngine8Criteria9DataTypes9IDataTypeE @4031 DATA
    _ZTVN3bOS11Collections15CollectionEntryE @4032 DATA
    _ZTVN3bOS3XML12XMLExceptionE @4033 DATA
    _ZTVN3bOS4Core11SmartLockerINS0_5MutexEEE @4034 DATA
    _ZTVN3bOS9Exception21NullArgumentExceptionE @4035 DATA
    _ZThn12_N11DataManager8Panorama17WorkflowProcesses15WorkflowProcess10acGetWhereEv @4036
    _ZThn12_N11DataManager8Panorama17WorkflowProcesses15WorkflowProcess12getSQLTablesEv @4037
    _ZThn12_N11DataManager8Panorama17WorkflowProcesses15WorkflowProcess14acGetTableNameEv @4038
    _ZThn12_N11DataManager8Panorama17WorkflowProcesses15WorkflowProcess21setAutoIncrementFieldEl @4039
    _ZThn12_N11DataManager8Panorama17WorkflowProcesses15WorkflowProcess22haveAutoIncrementFieldEv @4040
    _ZThn12_N11DataManager8Panorama17WorkflowProcesses15WorkflowProcess5parseEPN3bOS3SQL14ResultSetFieldE @4041
    _ZThn12_N11DataManager8Panorama17WorkflowProcesses15WorkflowProcess5parseEPN3bOS3SQL15ResultSetRecordE @4042
    _ZThn12_N11DataManager8Panorama17WorkflowProcesses15WorkflowProcess9setRecordERN3bOS3SQL15ResultSetRecordE @4043
    _ZThn12_N11DataManager8Panorama17WorkflowProcesses15WorkflowProcessD0Ev @4044
    _ZThn12_N11DataManager8Panorama17WorkflowProcesses15WorkflowProcessD1Ev @4045
    _ZThn28_N14WorkflowEngine8Criteria4Core8WorkflowD0Ev @4046
    _ZThn28_N14WorkflowEngine8Criteria4Core8WorkflowD1Ev @4047
    _ZThn32_N11DataManager8Panorama17WorkflowProcesses6ReportD0Ev @4048
    _ZThn32_N11DataManager8Panorama17WorkflowProcesses6ReportD1Ev @4049
    _ZThn32_N11DataManager8Panorama17WorkflowProcesses7MessageD0Ev @4050
    _ZThn32_N11DataManager8Panorama17WorkflowProcesses7MessageD1Ev @4051
    _ZThn32_N11DataManager8Panorama17WorkflowProcesses8Activity12setProcessIdEPKc @4052
    _ZThn32_N11DataManager8Panorama17WorkflowProcesses8Activity13setActivityIdEPKc @4053
    _ZThn32_N11DataManager8Panorama17WorkflowProcesses8ActivityD0Ev @4054
    _ZThn32_N11DataManager8Panorama17WorkflowProcesses8ActivityD1Ev @4055
    _ZThn32_N11DataManager8Panorama20WorkflowRelevantData9AttributeD0Ev @4056
    _ZThn32_N11DataManager8Panorama20WorkflowRelevantData9AttributeD1Ev @4057
    _ZThn36_N11DataManager8Panorama14WorkflowEvents12EventContext7equalToEPN3bOS11Collections15CollectionEntryE @4058
    _ZThn36_N11DataManager8Panorama14WorkflowEvents12EventContextD0Ev @4059
    _ZThn36_N11DataManager8Panorama14WorkflowEvents12EventContextD1Ev @4060
    _ZThn36_N11DataManager8Panorama17WorkflowProcesses10Activities10acGetWhereEv @4061
    _ZThn36_N11DataManager8Panorama17WorkflowProcesses10Activities14acGetTableNameEv @4062
    _ZThn36_N11DataManager8Panorama17WorkflowProcesses10Activities14addSQLCommandsERN3bOS3SQL11SQLCommandsEi @4063
    _ZThn36_N11DataManager8Panorama17WorkflowProcesses10Activities21setAutoIncrementFieldEl @4064
    _ZThn36_N11DataManager8Panorama17WorkflowProcesses10Activities22haveAutoIncrementFieldEv @4065
    _ZThn36_N11DataManager8Panorama17WorkflowProcesses10Activities5parseEPN3bOS3SQL14ResultSetFieldE @4066
    _ZThn36_N11DataManager8Panorama17WorkflowProcesses10Activities5parseEPN3bOS3SQL15ResultSetRecordE @4067
    _ZThn36_N11DataManager8Panorama17WorkflowProcesses10Activities9setRecordERN3bOS3SQL15ResultSetRecordE @4068
    _ZThn36_N11DataManager8Panorama17WorkflowProcesses10ActivitiesD0Ev @4069
    _ZThn36_N11DataManager8Panorama17WorkflowProcesses10ActivitiesD1Ev @4070
    _ZThn36_N11DataManager8Panorama17WorkflowProcesses15WorkflowProcess12setProcessIdEPKc @4071
    _ZThn36_N11DataManager8Panorama17WorkflowProcesses15WorkflowProcessD0Ev @4072
    _ZThn36_N11DataManager8Panorama17WorkflowProcesses15WorkflowProcessD1Ev @4073
    _ZThn36_N11DataManager8Panorama17WorkflowProcesses3Log7equalToEPN3bOS11Collections15CollectionEntryE @4074
    _ZThn36_N11DataManager8Panorama17WorkflowProcesses3LogD0Ev @4075
    _ZThn36_N11DataManager8Panorama17WorkflowProcesses3LogD1Ev @4076
    _ZThn36_N11DataManager8Panorama17WorkflowProcesses7Reports10acGetWhereEv @4077
    _ZThn36_N11DataManager8Panorama17WorkflowProcesses7Reports14acGetTableNameEv @4078
    _ZThn36_N11DataManager8Panorama17WorkflowProcesses7Reports14addSQLCommandsERN3bOS3SQL11SQLCommandsEi @4079
    _ZThn36_N11DataManager8Panorama17WorkflowProcesses7Reports21setAutoIncrementFieldEl @4080
    _ZThn36_N11DataManager8Panorama17WorkflowProcesses7Reports22haveAutoIncrementFieldEv @4081
    _ZThn36_N11DataManager8Panorama17WorkflowProcesses7Reports5parseEPN3bOS3SQL14ResultSetFieldE @4082
    _ZThn36_N11DataManager8Panorama17WorkflowProcesses7Reports5parseEPN3bOS3SQL15ResultSetRecordE @4083
    _ZThn36_N11DataManager8Panorama17WorkflowProcesses7Reports9setRecordERN3bOS3SQL15ResultSetRecordE @4084
    _ZThn36_N11DataManager8Panorama17WorkflowProcesses7ReportsD0Ev @4085
    _ZThn36_N11DataManager8Panorama17WorkflowProcesses7ReportsD1Ev @4086
    _ZThn36_N11DataManager8Panorama17WorkflowProcesses8Messages10acGetWhereEv @4087
    _ZThn36_N11DataManager8Panorama17WorkflowProcesses8Messages14acGetTableNameEv @4088
    _ZThn36_N11DataManager8Panorama17WorkflowProcesses8Messages14addSQLCommandsERN3bOS3SQL11SQLCommandsEi @4089
    _ZThn36_N11DataManager8Panorama17WorkflowProcesses8Messages21setAutoIncrementFieldEl @4090
    _ZThn36_N11DataManager8Panorama17WorkflowProcesses8Messages22haveAutoIncrementFieldEv @4091
    _ZThn36_N11DataManager8Panorama17WorkflowProcesses8Messages5parseEPN3bOS3SQL14ResultSetFieldE @4092
    _ZThn36_N11DataManager8Panorama17WorkflowProcesses8Messages5parseEPN3bOS3SQL15ResultSetRecordE @4093
    _ZThn36_N11DataManager8Panorama17WorkflowProcesses8Messages9setRecordERN3bOS3SQL15ResultSetRecordE @4094
    _ZThn36_N11DataManager8Panorama17WorkflowProcesses8MessagesD0Ev @4095
    _ZThn36_N11DataManager8Panorama17WorkflowProcesses8MessagesD1Ev @4096
    _ZThn36_N11DataManager8Panorama20WorkflowRelevantData10Attributes10acGetWhereEv @4097
    _ZThn36_N11DataManager8Panorama20WorkflowRelevantData10Attributes14acGetTableNameEv @4098
    _ZThn36_N11DataManager8Panorama20WorkflowRelevantData10Attributes14addSQLCommandsERN3bOS3SQL11SQLCommandsEi @4099
    _ZThn36_N11DataManager8Panorama20WorkflowRelevantData10Attributes21setAutoIncrementFieldEl @4100
    _ZThn36_N11DataManager8Panorama20WorkflowRelevantData10Attributes22haveAutoIncrementFieldEv @4101
    _ZThn36_N11DataManager8Panorama20WorkflowRelevantData10Attributes5parseEPN3bOS3SQL14ResultSetFieldE @4102
    _ZThn36_N11DataManager8Panorama20WorkflowRelevantData10Attributes5parseEPN3bOS3SQL15ResultSetRecordE @4103
    _ZThn36_N11DataManager8Panorama20WorkflowRelevantData10Attributes9setRecordERN3bOS3SQL15ResultSetRecordE @4104
    _ZThn36_N11DataManager8Panorama20WorkflowRelevantData10AttributesD0Ev @4105
    _ZThn36_N11DataManager8Panorama20WorkflowRelevantData10AttributesD1Ev @4106
    _ZThn4_N11DataManager8Panorama14WorkflowEvents12EventActionsD0Ev @4107
    _ZThn4_N11DataManager8Panorama14WorkflowEvents12EventActionsD1Ev @4108
    _ZThn4_N11DataManager8Panorama14WorkflowEvents12EventContextD0Ev @4109
    _ZThn4_N11DataManager8Panorama14WorkflowEvents12EventContextD1Ev @4110
    _ZThn4_N11DataManager8Panorama14WorkflowEvents12WaitingEventD0Ev @4111
    _ZThn4_N11DataManager8Panorama14WorkflowEvents12WaitingEventD1Ev @4112
    _ZThn4_N11DataManager8Panorama14WorkflowEvents13OccurredEventD0Ev @4113
    _ZThn4_N11DataManager8Panorama14WorkflowEvents13OccurredEventD1Ev @4114
    _ZThn4_N11DataManager8Panorama14WorkflowEvents15WaitingActivity7equalToEPN3bOS11Collections15CollectionEntryE @4115
    _ZThn4_N11DataManager8Panorama14WorkflowEvents15WaitingActivityD0Ev @4116
    _ZThn4_N11DataManager8Panorama14WorkflowEvents15WaitingActivityD1Ev @4117
    _ZThn4_N11DataManager8Panorama14WorkflowEvents16EventsDefinitionD0Ev @4118
    _ZThn4_N11DataManager8Panorama14WorkflowEvents16EventsDefinitionD1Ev @4119
    _ZThn4_N11DataManager8Panorama14WorkflowEvents17WaitingActivitiesD0Ev @4120
    _ZThn4_N11DataManager8Panorama14WorkflowEvents17WaitingActivitiesD1Ev @4121
    _ZThn4_N11DataManager8Panorama14WorkflowEvents19ScenarioEventAction7equalToEPN3bOS11Collections15CollectionEntryE @4122
    _ZThn4_N11DataManager8Panorama14WorkflowEvents19ScenarioEventActionD0Ev @4123
    _ZThn4_N11DataManager8Panorama14WorkflowEvents19ScenarioEventActionD1Ev @4124
    _ZThn4_N11DataManager8Panorama14WorkflowEvents5Event7equalToEPN3bOS11Collections15CollectionEntryE @4125
    _ZThn4_N11DataManager8Panorama14WorkflowEvents5EventD0Ev @4126
    _ZThn4_N11DataManager8Panorama14WorkflowEvents5EventD1Ev @4127
    _ZThn4_N11DataManager8Panorama14WorkflowEvents6EventsD0Ev @4128
    _ZThn4_N11DataManager8Panorama14WorkflowEvents6EventsD1Ev @4129
    _ZThn4_N11DataManager8Panorama16WorkflowServices7Service10acGetWhereEv @4130
    _ZThn4_N11DataManager8Panorama16WorkflowServices7Service14acGetTableNameEv @4131
    _ZThn4_N11DataManager8Panorama16WorkflowServices7Service21setAutoIncrementFieldEl @4132
    _ZThn4_N11DataManager8Panorama16WorkflowServices7Service22haveAutoIncrementFieldEv @4133
    _ZThn4_N11DataManager8Panorama16WorkflowServices7Service5parseEPN3bOS3SQL14ResultSetFieldE @4134
    _ZThn4_N11DataManager8Panorama16WorkflowServices7Service5parseEPN3bOS3SQL15ResultSetRecordE @4135
    _ZThn4_N11DataManager8Panorama16WorkflowServices7Service9setRecordERN3bOS3SQL15ResultSetRecordE @4136
    _ZThn4_N11DataManager8Panorama16WorkflowServices7ServiceD0Ev @4137
    _ZThn4_N11DataManager8Panorama16WorkflowServices7ServiceD1Ev @4138
    _ZThn4_N11DataManager8Panorama16WorkflowServices8ServicesD0Ev @4139
    _ZThn4_N11DataManager8Panorama16WorkflowServices8ServicesD1Ev @4140
    _ZThn4_N11DataManager8Panorama17WorkflowDataTypes13DataTypeValue7equalToEPN3bOS11Collections15CollectionEntryE @4141
    _ZThn4_N11DataManager8Panorama17WorkflowDataTypes13DataTypeValueD0Ev @4142
    _ZThn4_N11DataManager8Panorama17WorkflowDataTypes13DataTypeValueD1Ev @4143
    _ZThn4_N11DataManager8Panorama17WorkflowDataTypes14DataTypeValuesD0Ev @4144
    _ZThn4_N11DataManager8Panorama17WorkflowDataTypes14DataTypeValuesD1Ev @4145
    _ZThn4_N11DataManager8Panorama17WorkflowDataTypes8DataType10acGetWhereEv @4146
    _ZThn4_N11DataManager8Panorama17WorkflowDataTypes8DataType14acGetTableNameEv @4147
    _ZThn4_N11DataManager8Panorama17WorkflowDataTypes8DataType21setAutoIncrementFieldEl @4148
    _ZThn4_N11DataManager8Panorama17WorkflowDataTypes8DataType22haveAutoIncrementFieldEv @4149
    _ZThn4_N11DataManager8Panorama17WorkflowDataTypes8DataType5parseEPN3bOS3SQL14ResultSetFieldE @4150
    _ZThn4_N11DataManager8Panorama17WorkflowDataTypes8DataType5parseEPN3bOS3SQL15ResultSetRecordE @4151
    _ZThn4_N11DataManager8Panorama17WorkflowDataTypes8DataType9setRecordERN3bOS3SQL15ResultSetRecordE @4152
    _ZThn4_N11DataManager8Panorama17WorkflowDataTypes8DataTypeD0Ev @4153
    _ZThn4_N11DataManager8Panorama17WorkflowDataTypes8DataTypeD1Ev @4154
    _ZThn4_N11DataManager8Panorama17WorkflowDataTypes9DataTypesD0Ev @4155
    _ZThn4_N11DataManager8Panorama17WorkflowDataTypes9DataTypesD1Ev @4156
    _ZThn4_N11DataManager8Panorama17WorkflowProcesses10ActivitiesD0Ev @4157
    _ZThn4_N11DataManager8Panorama17WorkflowProcesses10ActivitiesD1Ev @4158
    _ZThn4_N11DataManager8Panorama17WorkflowProcesses10Transition10getXMLNodeEj @4159
    _ZThn4_N11DataManager8Panorama17WorkflowProcesses10Transition4initEv @4160
    _ZThn4_N11DataManager8Panorama17WorkflowProcesses10Transition5parseEPN3bOS3XML12XMLAttributeE @4161
    _ZThn4_N11DataManager8Panorama17WorkflowProcesses10Transition5parseEPN3bOS3XML7XMLNodeE @4162
    _ZThn4_N11DataManager8Panorama17WorkflowProcesses10Transition7isValidEv @4163
    _ZThn4_N11DataManager8Panorama17WorkflowProcesses10TransitionD0Ev @4164
    _ZThn4_N11DataManager8Panorama17WorkflowProcesses10TransitionD1Ev @4165
    _ZThn4_N11DataManager8Panorama17WorkflowProcesses11TransitionsD0Ev @4166
    _ZThn4_N11DataManager8Panorama17WorkflowProcesses11TransitionsD1Ev @4167
    _ZThn4_N11DataManager8Panorama17WorkflowProcesses13BehaviourBase7equalToEPN3bOS11Collections15CollectionEntryE @4168
    _ZThn4_N11DataManager8Panorama17WorkflowProcesses13BehaviourBaseD0Ev @4169
    _ZThn4_N11DataManager8Panorama17WorkflowProcesses13BehaviourBaseD1Ev @4170
    _ZThn4_N11DataManager8Panorama17WorkflowProcesses14BehaviourStartD0Ev @4171
    _ZThn4_N11DataManager8Panorama17WorkflowProcesses14BehaviourStartD1Ev @4172
    _ZThn4_N11DataManager8Panorama17WorkflowProcesses15BehaviourFinishD0Ev @4173
    _ZThn4_N11DataManager8Panorama17WorkflowProcesses15BehaviourFinishD1Ev @4174
    _ZThn4_N11DataManager8Panorama17WorkflowProcesses18BehaviourExecutionD0Ev @4175
    _ZThn4_N11DataManager8Panorama17WorkflowProcesses18BehaviourExecutionD1Ev @4176
    _ZThn4_N11DataManager8Panorama17WorkflowProcesses3LogD0Ev @4177
    _ZThn4_N11DataManager8Panorama17WorkflowProcesses3LogD1Ev @4178
    _ZThn4_N11DataManager8Panorama17WorkflowProcesses4LogsD0Ev @4179
    _ZThn4_N11DataManager8Panorama17WorkflowProcesses4LogsD1Ev @4180
    _ZThn4_N11DataManager8Panorama17WorkflowProcesses6Report7equalToEPN3bOS11Collections15CollectionEntryE @4181
    _ZThn4_N11DataManager8Panorama17WorkflowProcesses6ReportD0Ev @4182
    _ZThn4_N11DataManager8Panorama17WorkflowProcesses6ReportD1Ev @4183
    _ZThn4_N11DataManager8Panorama17WorkflowProcesses6Status7equalToEPN3bOS11Collections15CollectionEntryE @4184
    _ZThn4_N11DataManager8Panorama17WorkflowProcesses6StatusD0Ev @4185
    _ZThn4_N11DataManager8Panorama17WorkflowProcesses6StatusD1Ev @4186
    _ZThn4_N11DataManager8Panorama17WorkflowProcesses7Message7equalToEPN3bOS11Collections15CollectionEntryE @4187
    _ZThn4_N11DataManager8Panorama17WorkflowProcesses7MessageD0Ev @4188
    _ZThn4_N11DataManager8Panorama17WorkflowProcesses7MessageD1Ev @4189
    _ZThn4_N11DataManager8Panorama17WorkflowProcesses7ReportsD0Ev @4190
    _ZThn4_N11DataManager8Panorama17WorkflowProcesses7ReportsD1Ev @4191
    _ZThn4_N11DataManager8Panorama17WorkflowProcesses8Activity7equalToEPN3bOS11Collections15CollectionEntryE @4192
    _ZThn4_N11DataManager8Panorama17WorkflowProcesses8ActivityD0Ev @4193
    _ZThn4_N11DataManager8Panorama17WorkflowProcesses8ActivityD1Ev @4194
    _ZThn4_N11DataManager8Panorama17WorkflowProcesses8MessagesD0Ev @4195
    _ZThn4_N11DataManager8Panorama17WorkflowProcesses8MessagesD1Ev @4196
    _ZThn4_N11DataManager8Panorama17WorkflowProcesses9BehaviourD0Ev @4197
    _ZThn4_N11DataManager8Panorama17WorkflowProcesses9BehaviourD1Ev @4198
    _ZThn4_N11DataManager8Panorama20WorkflowRelevantData10AttributesD0Ev @4199
    _ZThn4_N11DataManager8Panorama20WorkflowRelevantData10AttributesD1Ev @4200
    _ZThn4_N11DataManager8Panorama20WorkflowRelevantData9Attribute7equalToEPN3bOS11Collections15CollectionEntryE @4201
    _ZThn4_N11DataManager8Panorama20WorkflowRelevantData9AttributeD0Ev @4202
    _ZThn4_N11DataManager8Panorama20WorkflowRelevantData9AttributeD1Ev @4203
    _ZThn4_N11DataManager8Panorama24WorkflowApplicationsData11Application7equalToEPN3bOS11Collections15CollectionEntryE @4204
    _ZThn4_N11DataManager8Panorama24WorkflowApplicationsData11ApplicationD0Ev @4205
    _ZThn4_N11DataManager8Panorama24WorkflowApplicationsData11ApplicationD1Ev @4206
    _ZThn4_N11DataManager8Panorama24WorkflowApplicationsData12ApplicationsD0Ev @4207
    _ZThn4_N11DataManager8Panorama24WorkflowApplicationsData12ApplicationsD1Ev @4208
    _ZThn4_N11DataManager8Panorama24WorkflowApplicationsData19ApplicationFunction7equalToEPN3bOS11Collections15CollectionEntryE @4209
    _ZThn4_N11DataManager8Panorama24WorkflowApplicationsData19ApplicationFunctionD0Ev @4210
    _ZThn4_N11DataManager8Panorama24WorkflowApplicationsData19ApplicationFunctionD1Ev @4211
    _ZThn4_N11DataManager8Panorama24WorkflowApplicationsData20ApplicationFunctionsD0Ev @4212
    _ZThn4_N11DataManager8Panorama24WorkflowApplicationsData20ApplicationFunctionsD1Ev @4213
    _ZThn4_N11DataManager8Panorama24WorkflowParticipantsData4Role7equalToEPN3bOS11Collections15CollectionEntryE @4214
    _ZThn4_N11DataManager8Panorama24WorkflowParticipantsData4RoleD0Ev @4215
    _ZThn4_N11DataManager8Panorama24WorkflowParticipantsData4RoleD1Ev @4216
    _ZThn4_N11DataManager8Panorama24WorkflowParticipantsData4User10acGetWhereEv @4217
    _ZThn4_N11DataManager8Panorama24WorkflowParticipantsData4User14acGetTableNameEv @4218
    _ZThn4_N11DataManager8Panorama24WorkflowParticipantsData4User21setAutoIncrementFieldEl @4219
    _ZThn4_N11DataManager8Panorama24WorkflowParticipantsData4User22haveAutoIncrementFieldEv @4220
    _ZThn4_N11DataManager8Panorama24WorkflowParticipantsData4User5parseEPN3bOS3SQL14ResultSetFieldE @4221
    _ZThn4_N11DataManager8Panorama24WorkflowParticipantsData4User5parseEPN3bOS3SQL15ResultSetRecordE @4222
    _ZThn4_N11DataManager8Panorama24WorkflowParticipantsData4User9setRecordERN3bOS3SQL15ResultSetRecordE @4223
    _ZThn4_N11DataManager8Panorama24WorkflowParticipantsData4UserD0Ev @4224
    _ZThn4_N11DataManager8Panorama24WorkflowParticipantsData4UserD1Ev @4225
    _ZThn4_N11DataManager8Panorama24WorkflowParticipantsData5RolesD0Ev @4226
    _ZThn4_N11DataManager8Panorama24WorkflowParticipantsData5RolesD1Ev @4227
    _ZThn4_N11DataManager8Panorama24WorkflowParticipantsData5UsersD0Ev @4228
    _ZThn4_N11DataManager8Panorama24WorkflowParticipantsData5UsersD1Ev @4229
    _ZThn4_N11DataManager8Panorama6Common15FormalParameter7equalToEPN3bOS11Collections15CollectionEntryE @4230
    _ZThn4_N11DataManager8Panorama6Common15FormalParameterD0Ev @4231
    _ZThn4_N11DataManager8Panorama6Common15FormalParameterD1Ev @4232
    _ZThn4_N11DataManager8Panorama6Common16FormalParametersD0Ev @4233
    _ZThn4_N11DataManager8Panorama6Common16FormalParametersD1Ev @4234
    _ZThn4_N11DataManager8Panorama6Common17ExtendedAttribute7equalToEPN3bOS11Collections15CollectionEntryE @4235
    _ZThn4_N11DataManager8Panorama6Common17ExtendedAttributeD0Ev @4236
    _ZThn4_N11DataManager8Panorama6Common17ExtendedAttributeD1Ev @4237
    _ZThn4_N11DataManager8Panorama6Common18ExtendedAttributesD0Ev @4238
    _ZThn4_N11DataManager8Panorama6Common18ExtendedAttributesD1Ev @4239
    _ZThn4_N11DataManager8Panorama6Common5Grant10getXMLNodeEj @4240
    _ZThn4_N11DataManager8Panorama6Common5Grant4initEv @4241
    _ZThn4_N11DataManager8Panorama6Common5Grant5parseEPN3bOS3XML12XMLAttributeE @4242
    _ZThn4_N11DataManager8Panorama6Common5Grant5parseEPN3bOS3XML7XMLNodeE @4243
    _ZThn4_N11DataManager8Panorama6Common5Grant7isValidEv @4244
    _ZThn4_N11DataManager8Panorama6Common5GrantD0Ev @4245
    _ZThn4_N11DataManager8Panorama6Common5GrantD1Ev @4246
    _ZThn4_N11DataManager8Panorama6Common6GrantsD0Ev @4247
    _ZThn4_N11DataManager8Panorama6Common6GrantsD1Ev @4248
    _ZThn4_N11DataManager8Panorama8DataBase10Connection7equalToEPN3bOS11Collections15CollectionEntryE @4249
    _ZThn4_N11DataManager8Panorama8DataBase10ConnectionD0Ev @4250
    _ZThn4_N11DataManager8Panorama8DataBase10ConnectionD1Ev @4251
    _ZThn4_N11DataManager8Panorama8DataBase11ConnectionsD0Ev @4252
    _ZThn4_N11DataManager8Panorama8DataBase11ConnectionsD1Ev @4253
    _ZThn4_N11DataManager8Panorama8DataBase14DataBaseObject7equalToEPN3bOS11Collections15CollectionEntryE @4254
    _ZThn4_N11DataManager8Panorama8DataBase14DataBaseObjectD0Ev @4255
    _ZThn4_N11DataManager8Panorama8DataBase14DataBaseObjectD1Ev @4256
    _ZThn4_N11DataManager8Panorama8DataBase14ODBCConnectionD0Ev @4257
    _ZThn4_N11DataManager8Panorama8DataBase14ODBCConnectionD1Ev @4258
    _ZThn4_N11DataManager8Panorama8DataBase15mySQLConnectionD0Ev @4259
    _ZThn4_N11DataManager8Panorama8DataBase15mySQLConnectionD1Ev @4260
    _ZThn4_N11DataManager8Panorama8DataBase16SQLiteConnectionD0Ev @4261
    _ZThn4_N11DataManager8Panorama8DataBase16SQLiteConnectionD1Ev @4262
    _ZThn4_N11DataManager8Panorama8DataBase20FileSystemConnectionD0Ev @4263
    _ZThn4_N11DataManager8Panorama8DataBase20FileSystemConnectionD1Ev @4264
    _ZThn4_N11DataManager8Panorama8DataBase21DataBaseObjectManagerD0Ev @4265
    _ZThn4_N11DataManager8Panorama8DataBase21DataBaseObjectManagerD1Ev @4266
    _ZThn60_N11DataManager8Panorama17WorkflowProcesses10Activities12setProcessIdEPKc @4267
    _ZThn60_N11DataManager8Panorama17WorkflowProcesses10ActivitiesD0Ev @4268
    _ZThn60_N11DataManager8Panorama17WorkflowProcesses10ActivitiesD1Ev @4269
    _ZThn60_N11DataManager8Panorama17WorkflowProcesses7ReportsD0Ev @4270
    _ZThn60_N11DataManager8Panorama17WorkflowProcesses7ReportsD1Ev @4271
    _ZThn60_N11DataManager8Panorama17WorkflowProcesses8MessagesD0Ev @4272
    _ZThn60_N11DataManager8Panorama17WorkflowProcesses8MessagesD1Ev @4273
    _ZThn60_N11DataManager8Panorama20WorkflowRelevantData10Attributes12setProcessIdEPKc @4274
    _ZThn60_N11DataManager8Panorama20WorkflowRelevantData10Attributes13setActivityIdEPKc @4275
    _ZThn60_N11DataManager8Panorama20WorkflowRelevantData10AttributesD0Ev @4276
    _ZThn60_N11DataManager8Panorama20WorkflowRelevantData10AttributesD1Ev @4277
    _ZThn8_N11DataManager8Panorama17WorkflowProcesses6Report10acGetWhereEv @4278
    _ZThn8_N11DataManager8Panorama17WorkflowProcesses6Report14acGetTableNameEv @4279
    _ZThn8_N11DataManager8Panorama17WorkflowProcesses6Report21setAutoIncrementFieldEl @4280
    _ZThn8_N11DataManager8Panorama17WorkflowProcesses6Report22haveAutoIncrementFieldEv @4281
    _ZThn8_N11DataManager8Panorama17WorkflowProcesses6Report5parseEPN3bOS3SQL14ResultSetFieldE @4282
    _ZThn8_N11DataManager8Panorama17WorkflowProcesses6Report5parseEPN3bOS3SQL15ResultSetRecordE @4283
    _ZThn8_N11DataManager8Panorama17WorkflowProcesses6Report9setRecordERN3bOS3SQL15ResultSetRecordE @4284
    _ZThn8_N11DataManager8Panorama17WorkflowProcesses6ReportD0Ev @4285
    _ZThn8_N11DataManager8Panorama17WorkflowProcesses6ReportD1Ev @4286
    _ZThn8_N11DataManager8Panorama17WorkflowProcesses7Message10acGetWhereEv @4287
    _ZThn8_N11DataManager8Panorama17WorkflowProcesses7Message14acGetTableNameEv @4288
    _ZThn8_N11DataManager8Panorama17WorkflowProcesses7Message21setAutoIncrementFieldEl @4289
    _ZThn8_N11DataManager8Panorama17WorkflowProcesses7Message22haveAutoIncrementFieldEv @4290
    _ZThn8_N11DataManager8Panorama17WorkflowProcesses7Message5parseEPN3bOS3SQL14ResultSetFieldE @4291
    _ZThn8_N11DataManager8Panorama17WorkflowProcesses7Message5parseEPN3bOS3SQL15ResultSetRecordE @4292
    _ZThn8_N11DataManager8Panorama17WorkflowProcesses7Message9setRecordERN3bOS3SQL15ResultSetRecordE @4293
    _ZThn8_N11DataManager8Panorama17WorkflowProcesses7MessageD0Ev @4294
    _ZThn8_N11DataManager8Panorama17WorkflowProcesses7MessageD1Ev @4295
    _ZThn8_N11DataManager8Panorama17WorkflowProcesses8Activity10acGetWhereEv @4296
    _ZThn8_N11DataManager8Panorama17WorkflowProcesses8Activity12getSQLTablesEv @4297
    _ZThn8_N11DataManager8Panorama17WorkflowProcesses8Activity14acGetTableNameEv @4298
    _ZThn8_N11DataManager8Panorama17WorkflowProcesses8Activity21setAutoIncrementFieldEl @4299
    _ZThn8_N11DataManager8Panorama17WorkflowProcesses8Activity22haveAutoIncrementFieldEv @4300
    _ZThn8_N11DataManager8Panorama17WorkflowProcesses8Activity5parseEPN3bOS3SQL14ResultSetFieldE @4301
    _ZThn8_N11DataManager8Panorama17WorkflowProcesses8Activity5parseEPN3bOS3SQL15ResultSetRecordE @4302
    _ZThn8_N11DataManager8Panorama17WorkflowProcesses8Activity9setRecordERN3bOS3SQL15ResultSetRecordE @4303
    _ZThn8_N11DataManager8Panorama17WorkflowProcesses8ActivityD0Ev @4304
    _ZThn8_N11DataManager8Panorama17WorkflowProcesses8ActivityD1Ev @4305
    _ZThn8_N11DataManager8Panorama20WorkflowRelevantData9Attribute10acGetWhereEv @4306
    _ZThn8_N11DataManager8Panorama20WorkflowRelevantData9Attribute14acGetTableNameEv @4307
    _ZThn8_N11DataManager8Panorama20WorkflowRelevantData9Attribute21setAutoIncrementFieldEl @4308
    _ZThn8_N11DataManager8Panorama20WorkflowRelevantData9Attribute22haveAutoIncrementFieldEv @4309
    _ZThn8_N11DataManager8Panorama20WorkflowRelevantData9Attribute5parseEPN3bOS3SQL14ResultSetFieldE @4310
    _ZThn8_N11DataManager8Panorama20WorkflowRelevantData9Attribute5parseEPN3bOS3SQL15ResultSetRecordE @4311
    _ZThn8_N11DataManager8Panorama20WorkflowRelevantData9Attribute9setRecordERN3bOS3SQL15ResultSetRecordE @4312
    _ZThn8_N11DataManager8Panorama20WorkflowRelevantData9AttributeD0Ev @4313
    _ZThn8_N11DataManager8Panorama20WorkflowRelevantData9AttributeD1Ev @4314
    _ZThn8_N11DataManager8Panorama24WorkflowParticipantsData4Role10acGetWhereEv @4315
    _ZThn8_N11DataManager8Panorama24WorkflowParticipantsData4Role14acGetTableNameEv @4316
    _ZThn8_N11DataManager8Panorama24WorkflowParticipantsData4Role21setAutoIncrementFieldEl @4317
    _ZThn8_N11DataManager8Panorama24WorkflowParticipantsData4Role22haveAutoIncrementFieldEv @4318
    _ZThn8_N11DataManager8Panorama24WorkflowParticipantsData4Role5parseEPN3bOS3SQL14ResultSetFieldE @4319
    _ZThn8_N11DataManager8Panorama24WorkflowParticipantsData4Role5parseEPN3bOS3SQL15ResultSetRecordE @4320
    _ZThn8_N11DataManager8Panorama24WorkflowParticipantsData4Role9setRecordERN3bOS3SQL15ResultSetRecordE @4321
    _ZThn8_N11DataManager8Panorama24WorkflowParticipantsData4RoleD0Ev @4322
    _ZThn8_N11DataManager8Panorama24WorkflowParticipantsData4RoleD1Ev @4323
    _ZTv0_n12_N11DataManager8Panorama16WorkflowServices7ServiceD0Ev @4324
    _ZTv0_n12_N11DataManager8Panorama16WorkflowServices7ServiceD1Ev @4325
    _ZTv0_n12_N11DataManager8Panorama17WorkflowDataTypes8DataTypeD0Ev @4326
    _ZTv0_n12_N11DataManager8Panorama17WorkflowDataTypes8DataTypeD1Ev @4327
    _ZTv0_n12_N11DataManager8Panorama17WorkflowProcesses15WorkflowProcessD0Ev @4328
    _ZTv0_n12_N11DataManager8Panorama17WorkflowProcesses15WorkflowProcessD1Ev @4329
    _ZTv0_n12_N11DataManager8Panorama24WorkflowParticipantsData4UserD0Ev @4330
    _ZTv0_n12_N11DataManager8Panorama24WorkflowParticipantsData4UserD1Ev @4331
    _ZTv0_n12_N11DataManager8Panorama8DataBase8DataBaseD0Ev @4332
    _ZTv0_n12_N11DataManager8Panorama8DataBase8DataBaseD1Ev @4333
    _ZTv0_n16_N11DataManager8Panorama16WorkflowServices7Service4initEv @4334
    _ZTv0_n16_N11DataManager8Panorama17WorkflowDataTypes8DataType4initEv @4335
    _ZTv0_n16_N11DataManager8Panorama17WorkflowProcesses15WorkflowProcess4initEv @4336
    _ZTv0_n16_N11DataManager8Panorama24WorkflowParticipantsData4User4initEv @4337
    _ZTv0_n16_N11DataManager8Panorama8DataBase8DataBase4initEv @4338
    _ZTv0_n20_N11DataManager8Panorama16WorkflowServices7Service5parseEPN3bOS3XML12XMLAttributeE @4339
    _ZTv0_n20_N11DataManager8Panorama17WorkflowDataTypes8DataType5parseEPN3bOS3XML12XMLAttributeE @4340
    _ZTv0_n20_N11DataManager8Panorama17WorkflowProcesses15WorkflowProcess5parseEPN3bOS3XML12XMLAttributeE @4341
    _ZTv0_n20_N11DataManager8Panorama24WorkflowParticipantsData4User5parseEPN3bOS3XML12XMLAttributeE @4342
    _ZTv0_n20_N11DataManager8Panorama8DataBase8DataBase5parseEPN3bOS3XML12XMLAttributeE @4343
    _ZTv0_n24_N11DataManager8Panorama16WorkflowServices7Service5parseEPN3bOS3XML7XMLNodeE @4344
    _ZTv0_n24_N11DataManager8Panorama17WorkflowDataTypes8DataType5parseEPN3bOS3XML7XMLNodeE @4345
    _ZTv0_n24_N11DataManager8Panorama17WorkflowProcesses15WorkflowProcess5parseEPN3bOS3XML7XMLNodeE @4346
    _ZTv0_n24_N11DataManager8Panorama24WorkflowParticipantsData4User5parseEPN3bOS3XML7XMLNodeE @4347
    _ZTv0_n24_N11DataManager8Panorama8DataBase8DataBase5parseEPN3bOS3XML7XMLNodeE @4348
    _ZTv0_n28_N11DataManager8Panorama16WorkflowServices7Service10getXMLNodeEj @4349
    _ZTv0_n28_N11DataManager8Panorama17WorkflowDataTypes8DataType10getXMLNodeEj @4350
    _ZTv0_n28_N11DataManager8Panorama17WorkflowProcesses15WorkflowProcess10getXMLNodeEj @4351
    _ZTv0_n28_N11DataManager8Panorama24WorkflowParticipantsData4User10getXMLNodeEj @4352
    _ZTv0_n28_N11DataManager8Panorama8DataBase8DataBase10getXMLNodeEj @4353
    _ZTv0_n32_N11DataManager8Panorama16WorkflowServices7Service7isValidEv @4354
    _ZTv0_n32_N11DataManager8Panorama17WorkflowDataTypes8DataType7isValidEv @4355
    _ZTv0_n32_N11DataManager8Panorama17WorkflowProcesses15WorkflowProcess7isValidEv @4356
    _ZTv0_n32_N11DataManager8Panorama24WorkflowParticipantsData4User7isValidEv @4357
    _ZTv0_n32_N11DataManager8Panorama8DataBase8DataBase7isValidEv @4358
    _ZdlPvS_ @4359
    _ZnwjPv @4360
    __gcc_deregister_frame @4361
    __gcc_register_frame @4362
    _nm___ZTVN3bOS3XML4Data9XMLObjectE @4363 DATA
    _nm___ZTVN3bOS9Exception13BaseExceptionE @4364 DATA
    acquireActivity @4365
    addService @4366
    addUserToRole @4367
    addWorkflow @4368
    assignActivity @4369
    authenticate @4370
    completeWorkItem @4371
    completeWorkItemSynch @4372
    createNewProcessInstance @4373
    createRole @4374
    createUser @4375
    createWorkflowProcess @4376
    deleteRole @4377
    deleteService @4378
    deleteUser @4379
    doWorkItem @4380
    executeApi @4381
    getActivitiesByProcess @4382
    getActivityAttributes @4383
    getActivityHistoryLog @4384
    getActivityList @4385
    getActivityListByProcess @4386
    getActivityLog @4387
    getActivityResultList @4388
    getAllActivityList @4389
    getAllMyActivityList @4390
    getApplicationForExtendedAttribute @4391
    getApplications @4392
    getAttributesFromActivity @4393
    getDataType @4394
    getDataTypes @4395
    getNewProcessHeader @4396
    getNextActivityList @4397
    getNumberRunningWorkflow @4398
    getProcessAttribute @4399
    getProcessHeader @4400
    getProcessInstance @4401
    getProcessInstanceAttributes @4402
    getProcessStatus @4403
    getProcesses @4404
    getReports @4405
    getRoles @4406
    getRolesByUser @4407
    getRolesBykey @4408
    getService @4409
    getServices @4410
    getServicesForExtendedAttribute @4411
    getServicesForUser @4412
    getUser @4413
    getUsers @4414
    getUsersByRole @4415
    getWorkItemAttributes @4416
    getWorkItemList @4417
    getWorkItemListByNotify @4418
    getWorkItemListCompleted @4419
    getWorkItemListNoRunning @4420
    getWorkItemListNoRunningByProcess @4421
    getWorkItemListRunning @4422
    getWorkItemListRunningByProcess @4423
    getWorkItemListRunningNoNotify @4424
    getWorkflowList @4425
    getWorkflowRunningList @4426
    hmod_libgcc @4427 DATA
    isInRole @4428
    reassignWorkItem @4429
    releaseWorkItem @4430
    removeUserFromRole @4431
    restartProcessInSynchWay @4432
    restartProcessInstance @4433
    setActivityAttributes @4434
    setProcessInstanceAttributes @4435
    setWorkItemAttributes @4436
    startProcessInSynchWay @4437
    startProcessInstance @4438
    stopWorkItem @4439
    updateRole @4440
    updateUser @4441
