EXPORTS
    _Z10socketsEndv @1
    _Z11socketsInitv @2
    _ZN11CodeManager10CodeTracer10deinstanceEv @3
    _ZN11CodeManager10CodeTracer10initializeEPKci @4
    _ZN11CodeManager10CodeTracer10initializeEiPPc @5
    _ZN11CodeManager10CodeTracer11CODEITEM_INB5cxx11E @6 DATA
    _ZN11CodeManager10CodeTracer12CODEITEM_OUTB5cxx11E @7 DATA
    _ZN11CodeManager10CodeTracer14indentbyThreadB5cxx11Eii @8
    _ZN11CodeManager10CodeTracer15createTraceFileEv @9
    _ZN11CodeManager10CodeTracer5writeEsPNS_8CodeItemEii @10
    _ZN11CodeManager10CodeTracer8instanceEv @11
    _ZN11CodeManager10CodeTracer9_instanceE @12 DATA
    _ZN11CodeManager10CodeTracerC1Ev @13
    _ZN11CodeManager10CodeTracerC2Ev @14
    _ZN11CodeManager10CodeTracerD1Ev @15
    _ZN11CodeManager10CodeTracerD2Ev @16
    _ZN11CodeManager8CodeItem3addEjPKci @17
    _ZN11CodeManager8CodeItem3addEjRKNSt7__cxx1112basic_stringIcSt11char_traitsIcESaIcEEEi @18
    _ZN11CodeManager8CodeItem3addEjRSt10ostrstreami @19
    _ZN11CodeManager8CodeItem3addEjci @20
    _ZN11CodeManager8CodeItem3addEjdi @21
    _ZN11CodeManager8CodeItem3addEjii @22
    _ZN11CodeManager8CodeItem3addEjli @23
    _ZN11CodeManager8CodeItem3addEjsi @24
    _ZN11CodeManager8CodeItem5clearEv @25
    _ZN11CodeManager8CodeItem8getTicksB5cxx11Ev @26
    _ZN11CodeManager8CodeItem9getBufferEv @27
    _ZN11CodeManager8CodeItemC1EPKcS2_b @28
    _ZN11CodeManager8CodeItemC2EPKcS2_b @29
    _ZN11CodeManager8CodeItemD1Ev @30
    _ZN11CodeManager8CodeItemD2Ev @31
    _ZN13SocketWrapper4readEPvj @32
    _ZN13SocketWrapper5closeEv @33
    _ZN13SocketWrapper5writeEPKvj @34
    _ZN13SocketWrapper6acceptEv @35
    _ZN13SocketWrapper6listenEii @36
    _ZN13SocketWrapper7connectEPKci @37
    _ZN13SocketWrapperC1ERKNS_14AcceptedSocketE @38
    _ZN13SocketWrapperC1Ev @39
    _ZN13SocketWrapperC2ERKNS_14AcceptedSocketE @40
    _ZN13SocketWrapperC2Ev @41
    _ZN13SocketWrapperD1Ev @42
    _ZN13SocketWrapperD2Ev @43
    _ZN3bOS10CoreString11StringUtils10toUIntegerERKNSt7__cxx1112basic_stringIcSt11char_traitsIcESaIcEEE @44
    _ZN3bOS10CoreString11StringUtils11toLowerCaseENSt7__cxx1112basic_stringIcSt11char_traitsIcESaIcEEE @45
    _ZN3bOS10CoreString11StringUtils11toUpperCaseENSt7__cxx1112basic_stringIcSt11char_traitsIcESaIcEEE @46
    _ZN3bOS10CoreString11StringUtils13compareNoCaseERKNSt7__cxx1112basic_stringIcSt11char_traitsIcESaIcEEES9_ @47
    _ZN3bOS10CoreString11StringUtils13quoteAndTwiceERNSt7__cxx1112basic_stringIcSt11char_traitsIcESaIcEEE @48
    _ZN3bOS10CoreString11StringUtils14getErrorStringB5cxx11ERKl @49
    _ZN3bOS10CoreString11StringUtils19returnQuoteAndTwiceERKNSt7__cxx1112basic_stringIcSt11char_traitsIcESaIcEEE @50
    _ZN3bOS10CoreString11StringUtils4trimERNSt7__cxx1112basic_stringIcSt11char_traitsIcESaIcEEE @51
    _ZN3bOS10CoreString11StringUtils6formatENSt7__cxx1112basic_stringIcSt11char_traitsIcESaIcEEEz @52
    _ZN3bOS10CoreString11StringUtils6toCharEPc @53
    _ZN3bOS10CoreString11StringUtils6toCharERKNSt7__cxx1112basic_stringIcSt11char_traitsIcESaIcEEE @54
    _ZN3bOS10CoreString11StringUtils6toLongERKNSt7__cxx1112basic_stringIcSt11char_traitsIcESaIcEEE @55
    _ZN3bOS10CoreString11StringUtils8fillWithERKNSt7__cxx1112basic_stringIcSt11char_traitsIcESaIcEEES7_b @56
    _ZN3bOS10CoreString11StringUtils8toDoubleERKNSt7__cxx1112basic_stringIcSt11char_traitsIcESaIcEEE @57
    _ZN3bOS10CoreString11StringUtils8toStringB5cxx11ERKb @58
    _ZN3bOS10CoreString11StringUtils8toStringB5cxx11ERKc @59
    _ZN3bOS10CoreString11StringUtils8toStringB5cxx11ERKd @60
    _ZN3bOS10CoreString11StringUtils8toStringB5cxx11ERKf @61
    _ZN3bOS10CoreString11StringUtils8toStringB5cxx11ERKi @62
    _ZN3bOS10CoreString11StringUtils8toStringB5cxx11ERKj @63
    _ZN3bOS10CoreString11StringUtils8toStringB5cxx11ERKl @64
    _ZN3bOS10CoreString11StringUtils8toStringB5cxx11ERKm @65
    _ZN3bOS10CoreString11StringUtils9duplicateB5cxx11EPKc @66
    _ZN3bOS10CoreString11StringUtils9toIntegerERKNSt7__cxx1112basic_stringIcSt11char_traitsIcESaIcEEE @67
    _ZN3bOS10CoreString12StringBuffer4sizeEv @68
    _ZN3bOS10CoreString12StringBuffer5clearEv @69
    _ZN3bOS10CoreString12StringBuffer6appendEPKc @70
    _ZN3bOS10CoreString12StringBuffer6appendEPKcj @71
    _ZN3bOS10CoreString12StringBuffer6appendERKNSt7__cxx1112basic_stringIcSt11char_traitsIcESaIcEEE @72
    _ZN3bOS10CoreString12StringBuffer6appendEc @73
    _ZN3bOS10CoreString12StringBuffer6appendEd @74
    _ZN3bOS10CoreString12StringBuffer6appendEi @75
    _ZN3bOS10CoreString12StringBuffer6appendEl @76
    _ZN3bOS10CoreString12StringBuffer7getDataEv @77
    _ZN3bOS10CoreString12StringBuffer9allocatorEj @78
    _ZN3bOS10CoreString12StringBufferC1Ej @79
    _ZN3bOS10CoreString12StringBufferC1Ev @80
    _ZN3bOS10CoreString12StringBufferC2Ej @81
    _ZN3bOS10CoreString12StringBufferC2Ev @82
    _ZN3bOS10CoreString12StringBufferD0Ev @83
    _ZN3bOS10CoreString12StringBufferD1Ev @84
    _ZN3bOS10CoreString12StringBufferD2Ev @85
    _ZN3bOS10CoreSystem6System14getErrorStringB5cxx11El @86
    _ZN3bOS10CoreSystem6System20getCurrentTimeMillisEv @87
    _ZN3bOS10CoreSystem6System22getEnvironmentVariableENSt7__cxx1112basic_stringIcSt11char_traitsIcESaIcEEE @88
    _ZN3bOS10CoreSystem6System22setEnvironmentVariableENSt7__cxx1112basic_stringIcSt11char_traitsIcESaIcEEES7_NS0_19EnvironmentStrategyE @89
    _ZN3bOS10CoreSystem6System24expandEnvironmentStringsERKNSt7__cxx1112basic_stringIcSt11char_traitsIcESaIcEEE @90
    _ZN3bOS11Collections10Collection2atEj @91
    _ZN3bOS11Collections10Collection3addEPNS0_15CollectionEntryE @92
    _ZN3bOS11Collections10Collection3getEPNS0_15CollectionEntryE @93
    _ZN3bOS11Collections10Collection4lockEv @94
    _ZN3bOS11Collections10Collection4sizeEv @95
    _ZN3bOS11Collections10Collection5clearEv @96
    _ZN3bOS11Collections10Collection6appendEPNS0_15CollectionEntryE @97
    _ZN3bOS11Collections10Collection6removeEPNS0_15CollectionEntryE @98
    _ZN3bOS11Collections10Collection6unlockEv @99
    _ZN3bOS11Collections10Collection6updateEPNS0_15CollectionEntryE @100
    _ZN3bOS11Collections10Collection7nots_atEj @101
    _ZN3bOS11Collections10Collection9removeAllEv @102
    _ZN3bOS11Collections10CollectionC1Ev @103
    _ZN3bOS11Collections10CollectionC2Ev @104
    _ZN3bOS11Collections10CollectionD0Ev @105
    _ZN3bOS11Collections10CollectionD1Ev @106
    _ZN3bOS11Collections10CollectionD2Ev @107
    _ZN3bOS11Collections10CollectionixEj @108
    _ZN3bOS2IO10FileSystem10deleteFileERKNSt7__cxx1112basic_stringIcSt11char_traitsIcESaIcEEE @109
    _ZN3bOS2IO10FileSystem11getFileNameERKNSt7__cxx1112basic_stringIcSt11char_traitsIcESaIcEEEb @110
    _ZN3bOS2IO10FileSystem13getStringFileEPKcRNS_10CoreString12StringBufferE @111
    _ZN3bOS2IO10FileSystem13getStringFileERKNSt7__cxx1112basic_stringIcSt11char_traitsIcESaIcEEE @112
    _ZN3bOS2IO10FileSystem14saveStringFileEPKcRNSt7__cxx1112basic_stringIcSt11char_traitsIcESaIcEEE @113
    _ZN3bOS2IO10FileSystem19getStringFileBinaryEPKcRNS_10CoreString12StringBufferE @114
    _ZN3bOS2IO10FileSystem21getFileAttributeFlagsERKNSt7__cxx1112basic_stringIcSt11char_traitsIcESaIcEEE @115
    _ZN3bOS2IO10FileSystem2lsERKNSt7__cxx1112basic_stringIcSt11char_traitsIcESaIcEEERSt6vectorIS7_SaIS7_EEPKc @116
    _ZN3bOS2IO10FileSystem9existFileERKNSt7__cxx1112basic_stringIcSt11char_traitsIcESaIcEEE @117
    _ZN3bOS2IO10FileSystemC1Ev @118
    _ZN3bOS2IO10FileSystemC2Ev @119
    _ZN3bOS2IO10FileSystemD0Ev @120
    _ZN3bOS2IO10FileSystemD1Ev @121
    _ZN3bOS2IO10FileSystemD2Ev @122
    _ZN3bOS2IO4FileC1EPKc @123
    _ZN3bOS2IO4FileC2EPKc @124
    _ZN3bOS2IO4FileD0Ev @125
    _ZN3bOS2IO4FileD1Ev @126
    _ZN3bOS2IO4FileD2Ev @127
    _ZN3bOS3Net22SocketRunTimeExceptionC1ERKNSt7__cxx1112basic_stringIcSt11char_traitsIcESaIcEEE @128
    _ZN3bOS3Net22SocketRunTimeExceptionC2ERKNSt7__cxx1112basic_stringIcSt11char_traitsIcESaIcEEE @129
    _ZN3bOS3SQL10SQLCommand19getSQLStringCommandB5cxx11Ev @130
    _ZN3bOS3SQL10SQLCommand27getPreparedSQLStringCommandB5cxx11Ev @131
    _ZN3bOS3SQL10SQLCommand8addWhereEPKc @132
    _ZN3bOS3SQL10SQLCommand9addRecordERNS0_15ResultSetRecordE @133
    _ZN3bOS3SQL10SQLCommand9addRecordEv @134
    _ZN3bOS3SQL10SQLCommandC1Ev @135
    _ZN3bOS3SQL10SQLCommandC2Ev @136
    _ZN3bOS3SQL10SQLCommandD0Ev @137
    _ZN3bOS3SQL10SQLCommandD1Ev @138
    _ZN3bOS3SQL10SQLCommandD2Ev @139
    _ZN3bOS3SQL11SQLCommandsC1Ev @140
    _ZN3bOS3SQL11SQLCommandsC2Ev @141
    _ZN3bOS3SQL11SQLCommandsD0Ev @142
    _ZN3bOS3SQL11SQLCommandsD1Ev @143
    _ZN3bOS3SQL11SQLCommandsD2Ev @144
    _ZN3bOS3SQL13SQLConnection10getTimeoutEv @145
    _ZN3bOS3SQL13SQLConnection10setTimeoutEi @146
    _ZN3bOS3SQL13SQLConnection12isAutoCommitEv @147
    _ZN3bOS3SQL13SQLConnection13setAutoCommitEb @148
    _ZN3bOS3SQL13SQLConnectionC1Ev @149
    _ZN3bOS3SQL13SQLConnectionC2Ev @150
    _ZN3bOS3SQL13SQLConnectionD0Ev @151
    _ZN3bOS3SQL13SQLConnectionD1Ev @152
    _ZN3bOS3SQL13SQLConnectionD2Ev @153
    _ZN3bOS3SQL14ResultSetFieldC1EPKc @154
    _ZN3bOS3SQL14ResultSetFieldC1EPKcRNSt7__cxx1112basic_stringIcSt11char_traitsIcESaIcEEEi @155
    _ZN3bOS3SQL14ResultSetFieldC1EPKcS3_i @156
    _ZN3bOS3SQL14ResultSetFieldC1EPKci @157
    _ZN3bOS3SQL14ResultSetFieldC1EPKcl @158
    _ZN3bOS3SQL14ResultSetFieldC2EPKc @159
    _ZN3bOS3SQL14ResultSetFieldC2EPKcRNSt7__cxx1112basic_stringIcSt11char_traitsIcESaIcEEEi @160
    _ZN3bOS3SQL14ResultSetFieldC2EPKcS3_i @161
    _ZN3bOS3SQL14ResultSetFieldC2EPKci @162
    _ZN3bOS3SQL14ResultSetFieldC2EPKcl @163
    _ZN3bOS3SQL14ResultSetFieldD0Ev @164
    _ZN3bOS3SQL14ResultSetFieldD1Ev @165
    _ZN3bOS3SQL14ResultSetFieldD2Ev @166
    _ZN3bOS3SQL15ResultSetRecord2atEi @167
    _ZN3bOS3SQL15ResultSetRecord3addEPKc @168
    _ZN3bOS3SQL15ResultSetRecord3addEPNS0_14ResultSetFieldE @169
    _ZN3bOS3SQL15ResultSetRecord4sizeEv @170
    _ZN3bOS3SQL15ResultSetRecord5clearEv @171
    _ZN3bOS3SQL15ResultSetRecordC1Ev @172
    _ZN3bOS3SQL15ResultSetRecordC2Ev @173
    _ZN3bOS3SQL15ResultSetRecordD0Ev @174
    _ZN3bOS3SQL15ResultSetRecordD1Ev @175
    _ZN3bOS3SQL15ResultSetRecordD2Ev @176
    _ZN3bOS3SQL17ResultSetMetaData10setNumColsEi @177
    _ZN3bOS3SQL17ResultSetMetaData14getColumnCountEv @178
    _ZN3bOS3SQL17ResultSetMetaData5clearEv @179
    _ZN3bOS3SQL17ResultSetMetaData9addColumnEPNS0_15ResultSetColumnE @180
    _ZN3bOS3SQL17ResultSetMetaData9addColumnEv @181
    _ZN3bOS3SQL17ResultSetMetaData9getColumnEPKc @182
    _ZN3bOS3SQL17ResultSetMetaData9getColumnEj @183
    _ZN3bOS3SQL17ResultSetMetaDataC1Ev @184
    _ZN3bOS3SQL17ResultSetMetaDataC2Ev @185
    _ZN3bOS3SQL17ResultSetMetaDataD0Ev @186
    _ZN3bOS3SQL17ResultSetMetaDataD1Ev @187
    _ZN3bOS3SQL17ResultSetMetaDataD2Ev @188
    _ZN3bOS3SQL18SQLSmartConnection4initEPNS0_20SQLConnectionManagerEPNS0_13SQLConnectionE @189
    _ZN3bOS3SQL18SQLSmartConnectionC1EPNS0_20SQLConnectionManagerEPNS0_13SQLConnectionE @190
    _ZN3bOS3SQL18SQLSmartConnectionC1Ev @191
    _ZN3bOS3SQL18SQLSmartConnectionC2EPNS0_20SQLConnectionManagerEPNS0_13SQLConnectionE @192
    _ZN3bOS3SQL18SQLSmartConnectionC2Ev @193
    _ZN3bOS3SQL18SQLSmartConnectionD0Ev @194
    _ZN3bOS3SQL18SQLSmartConnectionD1Ev @195
    _ZN3bOS3SQL18SQLSmartConnectionD2Ev @196
    _ZN3bOS3SQL20SQLConnectionManager10createPoolEPNS0_17SQLConnectionDataEjj @197
    _ZN3bOS3SQL20SQLConnectionManager16getNewConnectionEv @198
    _ZN3bOS3SQL20SQLConnectionManager3getEjj @199
    _ZN3bOS3SQL20SQLConnectionManager3getEv @200
    _ZN3bOS3SQL20SQLConnectionManager4initENS1_12DataBaseTypeE @201
    _ZN3bOS3SQL20SQLConnectionManager7releaseEPNS0_13SQLConnectionE @202
    _ZN3bOS3SQL20SQLConnectionManagerC1Ev @203
    _ZN3bOS3SQL20SQLConnectionManagerC2Ev @204
    _ZN3bOS3SQL20SQLConnectionManagerD0Ev @205
    _ZN3bOS3SQL20SQLConnectionManagerD1Ev @206
    _ZN3bOS3SQL20SQLConnectionManagerD2Ev @207
    _ZN3bOS3SQL22SQLConnectionPoolEntry6isFreeEv @208
    _ZN3bOS3SQL22SQLConnectionPoolEntry7setBusyEv @209
    _ZN3bOS3SQL22SQLConnectionPoolEntry7setFreeEv @210
    _ZN3bOS3SQL22SQLConnectionPoolEntryC1EPNS0_13SQLConnectionE @211
    _ZN3bOS3SQL22SQLConnectionPoolEntryC2EPNS0_13SQLConnectionE @212
    _ZN3bOS3SQL22SQLConnectionPoolEntryD0Ev @213
    _ZN3bOS3SQL22SQLConnectionPoolEntryD1Ev @214
    _ZN3bOS3SQL22SQLConnectionPoolEntryD2Ev @215
    _ZN3bOS3SQL5mySQL14mySQLResultSet11getMetaDataEv @216
    _ZN3bOS3SQL5mySQL14mySQLResultSet12movePreviousEv @217
    _ZN3bOS3SQL5mySQL14mySQLResultSet14binding_columnEv @218
    _ZN3bOS3SQL5mySQL14mySQLResultSet14getRecordCountEv @219
    _ZN3bOS3SQL5mySQL14mySQLResultSet3eofEv @220
    _ZN3bOS3SQL5mySQL14mySQLResultSet4bindEiPci @221
    _ZN3bOS3SQL5mySQL14mySQLResultSet8moveLastEv @222
    _ZN3bOS3SQL5mySQL14mySQLResultSet8moveNextEv @223
    _ZN3bOS3SQL5mySQL14mySQLResultSet9getRecordEv @224
    _ZN3bOS3SQL5mySQL14mySQLResultSet9moveFirstEv @225
    _ZN3bOS3SQL5mySQL14mySQLResultSetC1EP12st_mysql_res @226
    _ZN3bOS3SQL5mySQL14mySQLResultSetC2EP12st_mysql_res @227
    _ZN3bOS3SQL5mySQL14mySQLResultSetD0Ev @228
    _ZN3bOS3SQL5mySQL14mySQLResultSetD1Ev @229
    _ZN3bOS3SQL5mySQL14mySQLResultSetD2Ev @230
    _ZN3bOS3SQL5mySQL15mySQLConnection10beginTransEv @231
    _ZN3bOS3SQL5mySQL15mySQLConnection11isConnectedEv @232
    _ZN3bOS3SQL5mySQL15mySQLConnection12executeQueryEPKc @233
    _ZN3bOS3SQL5mySQL15mySQLConnection12executeQueryEPKcib @234
    _ZN3bOS3SQL5mySQL15mySQLConnection14executePrepareERNS0_11SQLCommandsE @235
    _ZN3bOS3SQL5mySQL15mySQLConnection16getAutoIncrementEv @236
    _ZN3bOS3SQL5mySQL15mySQLConnection18supportTransactionEv @237
    _ZN3bOS3SQL5mySQL15mySQLConnection4openEv @238
    _ZN3bOS3SQL5mySQL15mySQLConnection5closeEv @239
    _ZN3bOS3SQL5mySQL15mySQLConnection6commitEv @240
    _ZN3bOS3SQL5mySQL15mySQLConnection7executeEPKc @241
    _ZN3bOS3SQL5mySQL15mySQLConnection8rollbackEv @242
    _ZN3bOS3SQL5mySQL15mySQLConnectionC1EPNS1_19mySQLConnectionDataE @243
    _ZN3bOS3SQL5mySQL15mySQLConnectionC2EPNS1_19mySQLConnectionDataE @244
    _ZN3bOS3SQL5mySQL15mySQLConnectionD0Ev @245
    _ZN3bOS3SQL5mySQL15mySQLConnectionD1Ev @246
    _ZN3bOS3SQL5mySQL15mySQLConnectionD2Ev @247
    _ZN3bOS3SQL5mySQL19mySQLConnectionData4initEPNS0_17SQLConnectionDataE @248
    _ZN3bOS3SQL5mySQL19mySQLConnectionDataC1Ev @249
    _ZN3bOS3SQL5mySQL19mySQLConnectionDataC2Ev @250
    _ZN3bOS3SQL5mySQL19mySQLConnectionDataD0Ev @251
    _ZN3bOS3SQL5mySQL19mySQLConnectionDataD1Ev @252
    _ZN3bOS3SQL5mySQL19mySQLConnectionDataD2Ev @253
    _ZN3bOS3SQL5mySQL19mySQLResultSetFieldC1EPKc @254
    _ZN3bOS3SQL5mySQL19mySQLResultSetFieldC1EPKcRNSt7__cxx1112basic_stringIcSt11char_traitsIcESaIcEEE @255
    _ZN3bOS3SQL5mySQL19mySQLResultSetFieldC1EPKcS4_ @256
    _ZN3bOS3SQL5mySQL19mySQLResultSetFieldC1EPKci @257
    _ZN3bOS3SQL5mySQL19mySQLResultSetFieldC1EPKcl @258
    _ZN3bOS3SQL5mySQL19mySQLResultSetFieldC2EPKc @259
    _ZN3bOS3SQL5mySQL19mySQLResultSetFieldC2EPKcRNSt7__cxx1112basic_stringIcSt11char_traitsIcESaIcEEE @260
    _ZN3bOS3SQL5mySQL19mySQLResultSetFieldC2EPKcS4_ @261
    _ZN3bOS3SQL5mySQL19mySQLResultSetFieldC2EPKci @262
    _ZN3bOS3SQL5mySQL19mySQLResultSetFieldC2EPKcl @263
    _ZN3bOS3SQL5mySQL19mySQLResultSetFieldD0Ev @264
    _ZN3bOS3SQL5mySQL19mySQLResultSetFieldD1Ev @265
    _ZN3bOS3SQL5mySQL19mySQLResultSetFieldD2Ev @266
    _ZN3bOS3SQL5mySQL22mySQLResultSetMetaData12typeToStringEiPc @267
    _ZN3bOS3SQL5mySQL22mySQLResultSetMetaData16nullableToStringEiPc @268
    _ZN3bOS3SQL5mySQL22mySQLResultSetMetaDataC1Ev @269
    _ZN3bOS3SQL5mySQL22mySQLResultSetMetaDataC2Ev @270
    _ZN3bOS3SQL5mySQL22mySQLResultSetMetaDataD0Ev @271
    _ZN3bOS3SQL5mySQL22mySQLResultSetMetaDataD1Ev @272
    _ZN3bOS3SQL5mySQL22mySQLResultSetMetaDataD2Ev @273
    _ZN3bOS3SQL8SQLField8getValueB5cxx11Ev @274
    _ZN3bOS3SQL8SQLFieldC1EPKcRNSt7__cxx1112basic_stringIcSt11char_traitsIcESaIcEEE @275
    _ZN3bOS3SQL8SQLFieldC1EPKcS3_ @276
    _ZN3bOS3SQL8SQLFieldC1EPKci @277
    _ZN3bOS3SQL8SQLFieldC1EPKcl @278
    _ZN3bOS3SQL8SQLFieldC1ERKS1_ @279
    _ZN3bOS3SQL8SQLFieldC2EPKcRNSt7__cxx1112basic_stringIcSt11char_traitsIcESaIcEEE @280
    _ZN3bOS3SQL8SQLFieldC2EPKcS3_ @281
    _ZN3bOS3SQL8SQLFieldC2EPKci @282
    _ZN3bOS3SQL8SQLFieldC2EPKcl @283
    _ZN3bOS3SQL8SQLFieldC2ERKS1_ @284
    _ZN3bOS3SQL8SQLFieldD0Ev @285
    _ZN3bOS3SQL8SQLFieldD1Ev @286
    _ZN3bOS3SQL8SQLFieldD2Ev @287
    _ZN3bOS3SQL8SQLTable14addSQLCommandsERNS0_11SQLCommandsEi @288
    _ZN3bOS3SQL8SQLTable17getDropSQLCommandERNS0_11SQLCommandsE @289
    _ZN3bOS3SQL8SQLTable19getCreateSQLCommandERNS0_11SQLCommandsE @290
    _ZN3bOS3SQL8SQLTable19getDeleteSQLCommandERNS0_11SQLCommandsE @291
    _ZN3bOS3SQL8SQLTable19getInsertSQLCommandERNS0_11SQLCommandsE @292
    _ZN3bOS3SQL8SQLTable19getSelectSQLCommandERNS0_11SQLCommandsE @293
    _ZN3bOS3SQL8SQLTable19getUpdateSQLCommandERNS0_11SQLCommandsE @294
    _ZN3bOS3SQL8SQLTable5parseEPNS0_15ResultSetRecordE @295
    _ZN3bOS3SQL8SQLTableC1Eb @296
    _ZN3bOS3SQL8SQLTableC2Eb @297
    _ZN3bOS3SQL8SQLTableD0Ev @298
    _ZN3bOS3SQL8SQLTableD1Ev @299
    _ZN3bOS3SQL8SQLTableD2Ev @300
    _ZN3bOS3SQL9ResultSet5closeEv @301
    _ZN3bOS3SQL9ResultSetC1Ev @302
    _ZN3bOS3SQL9ResultSetC2Ev @303
    _ZN3bOS3SQL9ResultSetD0Ev @304
    _ZN3bOS3SQL9ResultSetD1Ev @305
    _ZN3bOS3SQL9ResultSetD2Ev @306
    _ZN3bOS3XML12XMLAttribute11getIntValueEv @307
    _ZN3bOS3XML12XMLAttribute12getLongValueEv @308
    _ZN3bOS3XML12XMLAttribute12getUIntValueEv @309
    _ZN3bOS3XML12XMLAttribute7equalToEPNS_11Collections15CollectionEntryE @310
    _ZN3bOS3XML12XMLAttribute7getNameEv @311
    _ZN3bOS3XML12XMLAttribute7setNameEPKc @312
    _ZN3bOS3XML12XMLAttribute8getValueEv @313
    _ZN3bOS3XML12XMLAttribute8setValueEPKc @314
    _ZN3bOS3XML12XMLAttributeC1EPKcRKNSt7__cxx1112basic_stringIcSt11char_traitsIcESaIcEEE @315
    _ZN3bOS3XML12XMLAttributeC1EPKcS3_ @316
    _ZN3bOS3XML12XMLAttributeC1EPKci @317
    _ZN3bOS3XML12XMLAttributeC1EPKcj @318
    _ZN3bOS3XML12XMLAttributeC1EPKcl @319
    _ZN3bOS3XML12XMLAttributeC1Ev @320
    _ZN3bOS3XML12XMLAttributeC2EPKcRKNSt7__cxx1112basic_stringIcSt11char_traitsIcESaIcEEE @321
    _ZN3bOS3XML12XMLAttributeC2EPKcS3_ @322
    _ZN3bOS3XML12XMLAttributeC2EPKci @323
    _ZN3bOS3XML12XMLAttributeC2EPKcj @324
    _ZN3bOS3XML12XMLAttributeC2EPKcl @325
    _ZN3bOS3XML12XMLAttributeC2Ev @326
    _ZN3bOS3XML12XMLAttributeD0Ev @327
    _ZN3bOS3XML12XMLAttributeD1Ev @328
    _ZN3bOS3XML12XMLAttributeD2Ev @329
    _ZN3bOS3XML4Data12XMLDirectory3getEPNS1_7XMLFileE @330
    _ZN3bOS3XML4Data12XMLDirectory3getEPNS1_7XMLFileERKNSt7__cxx1112basic_stringIcSt11char_traitsIcESaIcEEE @331
    _ZN3bOS3XML4Data12XMLDirectory4initEPKcb @332
    _ZN3bOS3XML4Data12XMLDirectory4listB5cxx11Ev @333
    _ZN3bOS3XML4Data12XMLDirectory5eraseEPNS1_7XMLFileE @334
    _ZN3bOS3XML4Data12XMLDirectory6insertEPNS1_7XMLFileERKNSt7__cxx1112basic_stringIcSt11char_traitsIcESaIcEEEb @335
    _ZN3bOS3XML4Data12XMLDirectory6insertEPNS1_7XMLFileEb @336
    _ZN3bOS3XML4Data12XMLDirectory6updateEPNS1_7XMLFileE @337
    _ZN3bOS3XML4Data12XMLDirectory8FILENAMEB5cxx11E @338 DATA
    _ZN3bOS3XML4Data12XMLDirectory9incrementEv @339
    _ZN3bOS3XML4Data12XMLDirectoryC1EPKcb @340
    _ZN3bOS3XML4Data12XMLDirectoryC1Ev @341
    _ZN3bOS3XML4Data12XMLDirectoryC2EPKcb @342
    _ZN3bOS3XML4Data12XMLDirectoryC2Ev @343
    _ZN3bOS3XML4Data12XMLDirectoryD0Ev @344
    _ZN3bOS3XML4Data12XMLDirectoryD1Ev @345
    _ZN3bOS3XML4Data12XMLDirectoryD2Ev @346
    _ZN3bOS3XML4Data12XMLObjectSet4initEPKc @347
    _ZN3bOS3XML4Data12XMLObjectSet4initEPNS0_7XMLNodeE @348
    _ZN3bOS3XML4Data12XMLObjectSet4initERNS_2IO4FileE @349
    _ZN3bOS3XML4Data12XMLObjectSet4initEv @350
    _ZN3bOS3XML4Data12XMLObjectSet4lockEv @351
    _ZN3bOS3XML4Data12XMLObjectSet6unlockEv @352
    _ZN3bOS3XML4Data12XMLObjectSet7addFileERNS_2IO4FileE @353
    _ZN3bOS3XML4Data12XMLObjectSetC1EPKc @354
    _ZN3bOS3XML4Data12XMLObjectSetC1EPNS0_7XMLNodeE @355
    _ZN3bOS3XML4Data12XMLObjectSetC1Ev @356
    _ZN3bOS3XML4Data12XMLObjectSetC2EPKc @357
    _ZN3bOS3XML4Data12XMLObjectSetC2EPNS0_7XMLNodeE @358
    _ZN3bOS3XML4Data12XMLObjectSetC2Ev @359
    _ZN3bOS3XML4Data12XMLObjectSetD0Ev @360
    _ZN3bOS3XML4Data12XMLObjectSetD1Ev @361
    _ZN3bOS3XML4Data12XMLObjectSetD2Ev @362
    _ZN3bOS3XML4Data7XMLFile10write2FileEPKc @363
    _ZN3bOS3XML4Data7XMLFile11loadAndInitEPKcPNS1_9XMLObjectE @364
    _ZN3bOS3XML4Data7XMLFile4initEPKc @365
    _ZN3bOS3XML4Data7XMLFile4initEPNS0_7XMLNodeE @366
    _ZN3bOS3XML4Data7XMLFile4initEv @367
    _ZN3bOS3XML4Data7XMLFile4loadEPKc @368
    _ZN3bOS3XML4Data7XMLFile5closeEv @369
    _ZN3bOS3XML4Data7XMLFile5writeEPKc @370
    _ZN3bOS3XML4Data7XMLFile6reloadEv @371
    _ZN3bOS3XML4Data7XMLFileC1EPNS0_7XMLNodeE @372
    _ZN3bOS3XML4Data7XMLFileC1Ev @373
    _ZN3bOS3XML4Data7XMLFileC2EPNS0_7XMLNodeE @374
    _ZN3bOS3XML4Data7XMLFileC2Ev @375
    _ZN3bOS3XML4Data7XMLFileD0Ev @376
    _ZN3bOS3XML4Data7XMLFileD1Ev @377
    _ZN3bOS3XML4Data7XMLFileD2Ev @378
    _ZN3bOS3XML4Data9XMLObject12getXMLStringB5cxx11Ej @379
    _ZN3bOS3XML4Data9XMLObject4initEPKc @380
    _ZN3bOS3XML4Data9XMLObject4initEPNS0_7XMLNodeE @381
    _ZN3bOS3XML4Data9XMLObject4initERNS_2IO4FileE @382
    _ZN3bOS3XML4Data9XMLObject4initEv @383
    _ZN3bOS3XML4Data9XMLObjectC1EPKc @384
    _ZN3bOS3XML4Data9XMLObjectC1EPNS0_7XMLNodeE @385
    _ZN3bOS3XML4Data9XMLObjectC1Ev @386
    _ZN3bOS3XML4Data9XMLObjectC2EPKc @387
    _ZN3bOS3XML4Data9XMLObjectC2EPNS0_7XMLNodeE @388
    _ZN3bOS3XML4Data9XMLObjectC2Ev @389
    _ZN3bOS3XML4Data9XMLObjectD0Ev @390
    _ZN3bOS3XML4Data9XMLObjectD1Ev @391
    _ZN3bOS3XML4Data9XMLObjectD2Ev @392
    _ZN3bOS3XML4XSLT11XSLTManager6byFileEPKcS4_S4_ @393
    _ZN3bOS3XML4XSLT11XSLTManager8byStringB5cxx11EPKcS4_ @394
    _ZN3bOS3XML7XMLNode10getXMLTextB5cxx11Ebj @395
    _ZN3bOS3XML7XMLNode10removeNodeEPS1_ @396
    _ZN3bOS3XML7XMLNode11getInnerXMLB5cxx11Ev @397
    _ZN3bOS3XML7XMLNode11getIntValueEv @398
    _ZN3bOS3XML7XMLNode12addAttributeEPNS0_12XMLAttributeE @399
    _ZN3bOS3XML7XMLNode12getAttributeEPKc @400
    _ZN3bOS3XML7XMLNode12getLongValueEv @401
    _ZN3bOS3XML7XMLNode12getUIntValueEv @402
    _ZN3bOS3XML7XMLNode13getAttributesEv @403
    _ZN3bOS3XML7XMLNode13getParentNodeEv @404
    _ZN3bOS3XML7XMLNode15removeAttributeEPNS0_12XMLAttributeE @405
    _ZN3bOS3XML7XMLNode18getValueTranscodedB5cxx11EPKc @406
    _ZN3bOS3XML7XMLNode7addNodeEPS1_ @407
    _ZN3bOS3XML7XMLNode7equalToEPNS_11Collections15CollectionEntryE @408
    _ZN3bOS3XML7XMLNode7getNameEv @409
    _ZN3bOS3XML7XMLNode7getNodeEPKc @410
    _ZN3bOS3XML7XMLNode7setNameEPKc @411
    _ZN3bOS3XML7XMLNode8getNodesEv @412
    _ZN3bOS3XML7XMLNode8getValueEv @413
    _ZN3bOS3XML7XMLNode8setValueEPKc @414
    _ZN3bOS3XML7XMLNode9setParentEPS1_ @415
    _ZN3bOS3XML7XMLNodeC1EPKcRKNSt7__cxx1112basic_stringIcSt11char_traitsIcESaIcEEE @416
    _ZN3bOS3XML7XMLNodeC1EPKcS3_ @417
    _ZN3bOS3XML7XMLNodeC1EPKci @418
    _ZN3bOS3XML7XMLNodeC1EPKcj @419
    _ZN3bOS3XML7XMLNodeC1EPKcl @420
    _ZN3bOS3XML7XMLNodeC1Ev @421
    _ZN3bOS3XML7XMLNodeC2EPKcRKNSt7__cxx1112basic_stringIcSt11char_traitsIcESaIcEEE @422
    _ZN3bOS3XML7XMLNodeC2EPKcS3_ @423
    _ZN3bOS3XML7XMLNodeC2EPKci @424
    _ZN3bOS3XML7XMLNodeC2EPKcj @425
    _ZN3bOS3XML7XMLNodeC2EPKcl @426
    _ZN3bOS3XML7XMLNodeC2Ev @427
    _ZN3bOS3XML7XMLNodeD0Ev @428
    _ZN3bOS3XML7XMLNodeD1Ev @429
    _ZN3bOS3XML7XMLNodeD2Ev @430
    _ZN3bOS3XML9XMLHelper10initializeEv @431
    _ZN3bOS3XML9XMLHelper10saveToFileEPKcPNS0_7XMLNodeE @432
    _ZN3bOS3XML9XMLHelper13parseFromFileEPKc @433
    _ZN3bOS3XML9XMLHelper15parseFromStringEPKc @434
    _ZN3bOS3XML9XMLHelper5parseEPKc @435
    _ZN3bOS3XML9XMLHelper5parseEPN11xercesc_3_17DOMNodeE @436
    _ZN3bOS3XML9XMLHelper9terminateEv @437
    _ZN3bOS4Core5Mutex4lockEv @438
    _ZN3bOS4Core5Mutex6unlockEv @439
    _ZN3bOS4Core5Mutex7getNameB5cxx11Ev @440
    _ZN3bOS4Core5Mutex7setNameENSt7__cxx1112basic_stringIcSt11char_traitsIcESaIcEEE @441
    _ZN3bOS4Core5Mutex7tryLockEv @442
    _ZN3bOS4Core5MutexC1ENSt7__cxx1112basic_stringIcSt11char_traitsIcESaIcEEE @443
    _ZN3bOS4Core5MutexC2ENSt7__cxx1112basic_stringIcSt11char_traitsIcESaIcEEE @444
    _ZN3bOS4Core5MutexD0Ev @445
    _ZN3bOS4Core5MutexD1Ev @446
    _ZN3bOS4Core5MutexD2Ev @447
    _ZN3bOS4Core6Thread10initializeEv @448
    _ZN3bOS4Core6Thread10m_RunnableE @449 DATA
    _ZN3bOS4Core6Thread10threadInitENS1_14ThreadPriorityE @450
    _ZN3bOS4Core6Thread11getPriorityEv @451
    _ZN3bOS4Core6Thread11getThreadIDEv @452
    _ZN3bOS4Core6Thread11setPriorityENS1_14ThreadPriorityE @453
    _ZN3bOS4Core6Thread15threadTerminateEv @454
    _ZN3bOS4Core6Thread18getCurrentThreadIDEv @455
    _ZN3bOS4Core6Thread18getCurrentThreadIdEv @456
    _ZN3bOS4Core6Thread3runEv @457
    _ZN3bOS4Core6Thread4joinEv @458
    _ZN3bOS4Core6Thread4stopEv @459
    _ZN3bOS4Core6Thread5sleepEl @460
    _ZN3bOS4Core6Thread5sleepEll @461
    _ZN3bOS4Core6Thread5startEv @462
    _ZN3bOS4Core6Thread5yieldEv @463
    _ZN3bOS4Core6Thread8finalizeEv @464
    _ZN3bOS4Core6Thread9getHandleEv @465
    _ZN3bOS4Core6Thread9invokeRunEPv @466
    _ZN3bOS4Core6Thread9isRunningEv @467
    _ZN3bOS4Core6Thread9setDaemonEb @468
    _ZN3bOS4Core6ThreadC1EPNS0_8RunnableE @469
    _ZN3bOS4Core6ThreadC2EPNS0_8RunnableE @470
    _ZN3bOS4Core6ThreadD0Ev @471
    _ZN3bOS4Core6ThreadD1Ev @472
    _ZN3bOS4Core6ThreadD2Ev @473
    _ZN3bOS4Core9Semaphore4postEv @474
    _ZN3bOS4Core9Semaphore4waitEv @475
    _ZN3bOS4Core9Semaphore7tryWaitEv @476
    _ZN3bOS4Core9SemaphoreC1ENSt7__cxx1112basic_stringIcSt11char_traitsIcESaIcEEEii @477
    _ZN3bOS4Core9SemaphoreC2ENSt7__cxx1112basic_stringIcSt11char_traitsIcESaIcEEEii @478
    _ZN3bOS4Core9SemaphoreD0Ev @479
    _ZN3bOS4Core9SemaphoreD1Ev @480
    _ZN3bOS4Core9SemaphoreD2Ev @481
    _ZN3bOS5Utils4Date10isLeapYearEi @482
    _ZN3bOS5Utils4Date14getCurrentDateEv @483
    _ZN3bOS5Utils4Date14getLongDayNameB5cxx11Ei @484
    _ZN3bOS5Utils4Date14setCurrentDateERS1_ @485
    _ZN3bOS5Utils4Date15getShortDayNameB5cxx11Ei @486
    _ZN3bOS5Utils4Date15set2CurrentDateEv @487
    _ZN3bOS5Utils4Date16getLongMonthNameB5cxx11Ei @488
    _ZN3bOS5Utils4Date17getShortMonthNameB5cxx11Ei @489
    _ZN3bOS5Utils4Date17gregorianToJulianEiii @490
    _ZN3bOS5Utils4Date17julianToGregorianEjRiS2_S2_ @491
    _ZN3bOS5Utils4Date7isValidEiii @492
    _ZN3bOS5Utils4Date7setDateEiii @493
    _ZN3bOS5Utils4Date8toStringB5cxx11Ev @494
    _ZN3bOS5Utils4DateC1Eiii @495
    _ZN3bOS5Utils4DateC1Ev @496
    _ZN3bOS5Utils4DateC2Eiii @497
    _ZN3bOS5Utils4DateC2Ev @498
    _ZN3bOS5Utils4DateD0Ev @499
    _ZN3bOS5Utils4DateD1Ev @500
    _ZN3bOS5Utils4DateD2Ev @501
    _ZN3bOS5Utils4Time11currentTimeEPS1_ @502
    _ZN3bOS5Utils4Time14getCurrentTimeEv @503
    _ZN3bOS5Utils4Time15set2CurrentTimeEv @504
    _ZN3bOS5Utils4Time7isValidEiiii @505
    _ZN3bOS5Utils4Time7setTimeEiiii @506
    _ZN3bOS5Utils4Time8toStringB5cxx11Ev @507
    _ZN3bOS5Utils4TimeC1Eiiii @508
    _ZN3bOS5Utils4TimeC1Ev @509
    _ZN3bOS5Utils4TimeC2Eiiii @510
    _ZN3bOS5Utils4TimeC2Ev @511
    _ZN3bOS5Utils4TimeD0Ev @512
    _ZN3bOS5Utils4TimeD1Ev @513
    _ZN3bOS5Utils4TimeD2Ev @514
    _ZN3bOS5Utils5Timer4stopEv @515
    _ZN3bOS5Utils5Timer5startEv @516
    _ZN3bOS5Utils5Timer8getTicksEv @517
    _ZN3bOS5Utils5TimerC1Ev @518
    _ZN3bOS5Utils5TimerC2Ev @519
    _ZN3bOS5Utils5TimerD0Ev @520
    _ZN3bOS5Utils5TimerD1Ev @521
    _ZN3bOS5Utils5TimerD2Ev @522
    _ZN3bOS5Utils8DateTime17getOracleDateTimeERKNSt7__cxx1112basic_stringIcSt11char_traitsIcESaIcEEE @523
    _ZN3bOS5Utils8DateTime18getCurrentDateTimeEv @524
    _ZN3bOS5Utils8DateTime19set2CurrentDateTimeEv @525
    _ZN3bOS5Utils8DateTime7setDateERKNS0_4DateE @526
    _ZN3bOS5Utils8DateTime7setTimeERKNS0_4TimeE @527
    _ZN3bOS5Utils8DateTime8setTimeTEj @528
    _ZN3bOS5Utils8DateTime8toStringB5cxx11Ev @529
    _ZN3bOS5Utils8DateTimeC1ERKNS0_4DateE @530
    _ZN3bOS5Utils8DateTimeC1ERKNS0_4DateERKNS0_4TimeE @531
    _ZN3bOS5Utils8DateTimeC1Ev @532
    _ZN3bOS5Utils8DateTimeC2ERKNS0_4DateE @533
    _ZN3bOS5Utils8DateTimeC2ERKNS0_4DateERKNS0_4TimeE @534
    _ZN3bOS5Utils8DateTimeC2Ev @535
    _ZN3bOS5Utils8DateTimeD0Ev @536
    _ZN3bOS5Utils8DateTimeD1Ev @537
    _ZN3bOS5Utils8DateTimeD2Ev @538
    _ZN3bOS5Utils8UniqueID11getNewValueB5cxx11Ev @539
    _ZN3bOS5Utils8UniqueIDC1Ev @540
    _ZN3bOS5Utils8UniqueIDC2Ev @541
    _ZN3bOS5Utils8UniqueIDD0Ev @542
    _ZN3bOS5Utils8UniqueIDD1Ev @543
    _ZN3bOS5Utils8UniqueIDD2Ev @544
    _ZN3bOS6System7Process11getExitCodeEv @545
    _ZN3bOS6System7Process11getThreadIDEv @546
    _ZN3bOS6System7Process12getProcessIDEv @547
    _ZN3bOS6System7Process13createProcessERKNSt7__cxx1112basic_stringIcSt11char_traitsIcESaIcEEESt6vectorIS7_SaIS7_EE @548
    _ZN3bOS6System7Process14destroyProcessEv @549
    _ZN3bOS6System7Process14getProcessNameB5cxx11Ev @550
    _ZN3bOS6System7Process19getCurrentProcessIdEv @551
    _ZN3bOS6System7Process7waitForEv @552
    _ZN3bOS6System7Process9isRunningEv @553
    _ZN3bOS6System7ProcessC1Ej @554
    _ZN3bOS6System7ProcessC1Ev @555
    _ZN3bOS6System7ProcessC2Ej @556
    _ZN3bOS6System7ProcessC2Ev @557
    _ZN3bOS6System7ProcessD0Ev @558
    _ZN3bOS6System7ProcessD1Ev @559
    _ZN3bOS6System7ProcessD2Ev @560
    _ZN3bOS9Exception13BaseException10getMessageB5cxx11Ev @561
    _ZN3bOS9Exception13BaseExceptionC1ERKNSt7__cxx1112basic_stringIcSt11char_traitsIcESaIcEEE @562
    _ZN3bOS9Exception13BaseExceptionC1ERKNSt7__cxx1112basic_stringIcSt11char_traitsIcESaIcEEEi @563
    _ZN3bOS9Exception13BaseExceptionC1Ev @564
    _ZN3bOS9Exception13BaseExceptionC2ERKNSt7__cxx1112basic_stringIcSt11char_traitsIcESaIcEEE @565
    _ZN3bOS9Exception13BaseExceptionC2ERKNSt7__cxx1112basic_stringIcSt11char_traitsIcESaIcEEEi @566
    _ZN3bOS9Exception13BaseExceptionC2Ev @567
    _ZN3bOS9Exception13BaseExceptionD0Ev @568
    _ZN3bOS9Exception13BaseExceptionD1Ev @569
    _ZN3bOS9Exception13BaseExceptionD2Ev @570
    _ZNK13SocketWrapper4portEv @571
    _ZNK13SocketWrapper7addressEv @572
    _ZNK3bOS3Net22SocketRunTimeException4whatEv @573
    _ZNK3bOS4Core6Thread8isDaemonEv @574
    _ZNK3bOS5Utils4Date12getDayOfWeekEv @575
    _ZNK3bOS5Utils4Date12getDayOfYearEv @576
    _ZNK3bOS5Utils4Date13getDaysInYearEv @577
    _ZNK3bOS5Utils4Date14getDaysInMonthEv @578
    _ZNK3bOS5Utils4Date6daysToERKS1_ @579
    _ZNK3bOS5Utils4Date6getDayEv @580
    _ZNK3bOS5Utils4Date6isNullEv @581
    _ZNK3bOS5Utils4Date7addDaysEi @582
    _ZNK3bOS5Utils4Date7getYearEv @583
    _ZNK3bOS5Utils4Date7isValidEv @584
    _ZNK3bOS5Utils4Date8addYearsEi @585
    _ZNK3bOS5Utils4Date8getMonthEv @586
    _ZNK3bOS5Utils4Date9addMonthsEi @587
    _ZNK3bOS5Utils4DateeqERKS1_ @588
    _ZNK3bOS5Utils4DategeERKS1_ @589
    _ZNK3bOS5Utils4DategtERKS1_ @590
    _ZNK3bOS5Utils4DateleERKS1_ @591
    _ZNK3bOS5Utils4DateltERKS1_ @592
    _ZNK3bOS5Utils4DateneERKS1_ @593
    _ZNK3bOS5Utils4Time10addSecondsEi @594
    _ZNK3bOS5Utils4Time10getMinutesEv @595
    _ZNK3bOS5Utils4Time10getSecondsEv @596
    _ZNK3bOS5Utils4Time14millisecondsToERKS1_ @597
    _ZNK3bOS5Utils4Time15addMillisecondsEi @598
    _ZNK3bOS5Utils4Time15getMillisecondsEv @599
    _ZNK3bOS5Utils4Time6isNullEv @600
    _ZNK3bOS5Utils4Time7getHourEv @601
    _ZNK3bOS5Utils4Time7isValidEv @602
    _ZNK3bOS5Utils4Time9secondsToERKS1_ @603
    _ZNK3bOS5Utils4TimeeqERKS1_ @604
    _ZNK3bOS5Utils4TimegeERKS1_ @605
    _ZNK3bOS5Utils4TimegtERKS1_ @606
    _ZNK3bOS5Utils4TimeleERKS1_ @607
    _ZNK3bOS5Utils4TimeltERKS1_ @608
    _ZNK3bOS5Utils4TimeneERKS1_ @609
    _ZNK3bOS5Utils8DateTime10addSecondsEi @610
    _ZNK3bOS5Utils8DateTime6daysToERKS1_ @611
    _ZNK3bOS5Utils8DateTime6isNullEv @612
    _ZNK3bOS5Utils8DateTime7addDaysEi @613
    _ZNK3bOS5Utils8DateTime7getDateEv @614
    _ZNK3bOS5Utils8DateTime7getTimeEv @615
    _ZNK3bOS5Utils8DateTime7isValidEv @616
    _ZNK3bOS5Utils8DateTime8addYearsEi @617
    _ZNK3bOS5Utils8DateTime8getTimeTEv @618
    _ZNK3bOS5Utils8DateTime9addMonthsEi @619
    _ZNK3bOS5Utils8DateTime9secondsToERKS1_ @620
    _ZNK3bOS5Utils8DateTimeeqERKS1_ @621
    _ZNK3bOS5Utils8DateTimegeERKS1_ @622
    _ZNK3bOS5Utils8DateTimegtERKS1_ @623
    _ZNK3bOS5Utils8DateTimeleERKS1_ @624
    _ZNK3bOS5Utils8DateTimeltERKS1_ @625
    _ZNK3bOS5Utils8DateTimeneERKS1_ @626
    _ZTIN3bOS10CoreString12StringBufferE @627 DATA
    _ZTIN3bOS11Collections10CollectionE @628 DATA
    _ZTIN3bOS11Collections15CollectionEntryE @629 DATA
    _ZTIN3bOS2IO10FileSystemE @630 DATA
    _ZTIN3bOS2IO4FileE @631 DATA
    _ZTIN3bOS3Net20SocketLogicExceptionE @632 DATA
    _ZTIN3bOS3Net22SocketRunTimeExceptionE @633 DATA
    _ZTIN3bOS3SQL10SQLCommandE @634 DATA
    _ZTIN3bOS3SQL11SQLCommandsE @635 DATA
    _ZTIN3bOS3SQL12SQLExceptionE @636 DATA
    _ZTIN3bOS3SQL13SQLConnectionE @637 DATA
    _ZTIN3bOS3SQL14ResultSetFieldE @638 DATA
    _ZTIN3bOS3SQL15ResultSetRecordE @639 DATA
    _ZTIN3bOS3SQL17ResultSetMetaDataE @640 DATA
    _ZTIN3bOS3SQL17SQLConnectionDataE @641 DATA
    _ZTIN3bOS3SQL18SQLSmartConnectionE @642 DATA
    _ZTIN3bOS3SQL20SQLConnectionManagerE @643 DATA
    _ZTIN3bOS3SQL22SQLConnectionPoolEntryE @644 DATA
    _ZTIN3bOS3SQL5mySQL14mySQLResultSetE @645 DATA
    _ZTIN3bOS3SQL5mySQL15mySQLConnectionE @646 DATA
    _ZTIN3bOS3SQL5mySQL19mySQLConnectionDataE @647 DATA
    _ZTIN3bOS3SQL5mySQL19mySQLResultSetFieldE @648 DATA
    _ZTIN3bOS3SQL5mySQL22mySQLResultSetMetaDataE @649 DATA
    _ZTIN3bOS3SQL8SQLFieldE @650 DATA
    _ZTIN3bOS3SQL8SQLTableE @651 DATA
    _ZTIN3bOS3SQL9ResultSetE @652 DATA
    _ZTIN3bOS3XML12XMLAttributeE @653 DATA
    _ZTIN3bOS3XML12XMLExceptionE @654 DATA
    _ZTIN3bOS3XML4Data12XMLDirectoryE @655 DATA
    _ZTIN3bOS3XML4Data12XMLObjectSetE @656 DATA
    _ZTIN3bOS3XML4Data7XMLFileE @657 DATA
    _ZTIN3bOS3XML4Data9XMLObjectE @658 DATA
    _ZTIN3bOS3XML7XMLNodeE @659 DATA
    _ZTIN3bOS4Core11SmartLockerINS0_5MutexEEE @660 DATA
    _ZTIN3bOS4Core5MutexE @661 DATA
    _ZTIN3bOS4Core6ThreadE @662 DATA
    _ZTIN3bOS4Core8RunnableE @663 DATA
    _ZTIN3bOS4Core9SemaphoreE @664 DATA
    _ZTIN3bOS5Utils4DateE @665 DATA
    _ZTIN3bOS5Utils4TimeE @666 DATA
    _ZTIN3bOS5Utils5TimerE @667 DATA
    _ZTIN3bOS5Utils8DateTimeE @668 DATA
    _ZTIN3bOS5Utils8UniqueIDE @669 DATA
    _ZTIN3bOS6System7ProcessE @670 DATA
    _ZTIN3bOS9Exception13BaseExceptionE @671 DATA
    _ZTIN3bOS9Exception13XSLTExceptionE @672 DATA
    _ZTIN3bOS9Exception16RuntimeExceptionE @673 DATA
    _ZTIN3bOS9Exception17DeadLockExceptionE @674 DATA
    _ZTIN3bOS9Exception19FileSystemExceptionE @675 DATA
    _ZTIN3bOS9Exception20InterruptedExceptionE @676 DATA
    _ZTIN3bOS9Exception21NullArgumentExceptionE @677 DATA
    _ZTIN3bOS9Exception24SynchronizationExceptionE @678 DATA
    _ZTIN3bOS9Exception27AlreadyInitializedExceptionE @679 DATA
    _ZTTN3bOS3XML4Data7XMLFileE @680 DATA
    _ZTVN3bOS10CoreString12StringBufferE @681 DATA
    _ZTVN3bOS11Collections10CollectionE @682 DATA
    _ZTVN3bOS11Collections15CollectionEntryE @683 DATA
    _ZTVN3bOS2IO10FileSystemE @684 DATA
    _ZTVN3bOS2IO4FileE @685 DATA
    _ZTVN3bOS3Net20SocketLogicExceptionE @686 DATA
    _ZTVN3bOS3Net22SocketRunTimeExceptionE @687 DATA
    _ZTVN3bOS3SQL10SQLCommandE @688 DATA
    _ZTVN3bOS3SQL11SQLCommandsE @689 DATA
    _ZTVN3bOS3SQL12SQLExceptionE @690 DATA
    _ZTVN3bOS3SQL13SQLConnectionE @691 DATA
    _ZTVN3bOS3SQL14ResultSetFieldE @692 DATA
    _ZTVN3bOS3SQL15ResultSetRecordE @693 DATA
    _ZTVN3bOS3SQL17ResultSetMetaDataE @694 DATA
    _ZTVN3bOS3SQL17SQLConnectionDataE @695 DATA
    _ZTVN3bOS3SQL18SQLSmartConnectionE @696 DATA
    _ZTVN3bOS3SQL20SQLConnectionManagerE @697 DATA
    _ZTVN3bOS3SQL22SQLConnectionPoolEntryE @698 DATA
    _ZTVN3bOS3SQL5mySQL14mySQLResultSetE @699 DATA
    _ZTVN3bOS3SQL5mySQL15mySQLConnectionE @700 DATA
    _ZTVN3bOS3SQL5mySQL19mySQLConnectionDataE @701 DATA
    _ZTVN3bOS3SQL5mySQL19mySQLResultSetFieldE @702 DATA
    _ZTVN3bOS3SQL5mySQL22mySQLResultSetMetaDataE @703 DATA
    _ZTVN3bOS3SQL8SQLFieldE @704 DATA
    _ZTVN3bOS3SQL8SQLTableE @705 DATA
    _ZTVN3bOS3SQL9ResultSetE @706 DATA
    _ZTVN3bOS3XML12XMLAttributeE @707 DATA
    _ZTVN3bOS3XML12XMLExceptionE @708 DATA
    _ZTVN3bOS3XML4Data12XMLDirectoryE @709 DATA
    _ZTVN3bOS3XML4Data12XMLObjectSetE @710 DATA
    _ZTVN3bOS3XML4Data7XMLFileE @711 DATA
    _ZTVN3bOS3XML4Data9XMLObjectE @712 DATA
    _ZTVN3bOS3XML7XMLNodeE @713 DATA
    _ZTVN3bOS4Core11SmartLockerINS0_5MutexEEE @714 DATA
    _ZTVN3bOS4Core5MutexE @715 DATA
    _ZTVN3bOS4Core6ThreadE @716 DATA
    _ZTVN3bOS4Core8RunnableE @717 DATA
    _ZTVN3bOS4Core9SemaphoreE @718 DATA
    _ZTVN3bOS5Utils4DateE @719 DATA
    _ZTVN3bOS5Utils4TimeE @720 DATA
    _ZTVN3bOS5Utils5TimerE @721 DATA
    _ZTVN3bOS5Utils8DateTimeE @722 DATA
    _ZTVN3bOS5Utils8UniqueIDE @723 DATA
    _ZTVN3bOS6System7ProcessE @724 DATA
    _ZTVN3bOS9Exception13BaseExceptionE @725 DATA
    _ZTVN3bOS9Exception13XSLTExceptionE @726 DATA
    _ZTVN3bOS9Exception16RuntimeExceptionE @727 DATA
    _ZTVN3bOS9Exception17DeadLockExceptionE @728 DATA
    _ZTVN3bOS9Exception19FileSystemExceptionE @729 DATA
    _ZTVN3bOS9Exception20InterruptedExceptionE @730 DATA
    _ZTVN3bOS9Exception21NullArgumentExceptionE @731 DATA
    _ZTVN3bOS9Exception24SynchronizationExceptionE @732 DATA
    _ZTVN3bOS9Exception27AlreadyInitializedExceptionE @733 DATA
    _ZThn4_N3bOS3XML4Data12XMLObjectSetD0Ev @734
    _ZThn4_N3bOS3XML4Data12XMLObjectSetD1Ev @735
    _ZTv0_n12_N3bOS3XML4Data7XMLFileD0Ev @736
    _ZTv0_n12_N3bOS3XML4Data7XMLFileD1Ev @737
    _ZTv0_n16_N3bOS3XML4Data7XMLFile4initEv @738
